(lp1
(lp2
S'-24'
p3
aS'-204'
p4
aS'-256'
p5
aS'-261'
p6
aS'-277'
p7
aS'-719'
p8
aS'-1721'
p9
aS'-1923'
p10
aS'-2105'
p11
aS'-2161'
p12
aS'-57949'
p13
aa(lp14
a(lp15
a(lp16
S'-2683'
p17
aa(lp18
S'-319'
p19
aS'-1012'
p20
aS'-2427'
p21
aS'-2490'
p22
aS'-2871'
p23
aS'-5065'
p24
aa(lp25
a(lp26
S'-344'
p27
aS'-367'
p28
aS'-1954'
p29
aS'-2699'
p30
aS'-2712'
p31
aS'-4343'
p32
aS'-6794'
p33
aS'-57532'
p34
aa(lp35
S'-1183'
p36
aa(lp37
S'-329'
p38
aS'-509'
p39
aS'-597'
p40
aS'-610'
p41
aa(lp42
S'-934'
p43
aS'-1298'
p44
aa(lp45
a(lp46
S'-350'
p47
aS'-1208'
p48
aS'-1225'
p49
aa(lp50
S'-5424'
p51
aa(lp52
a(lp53
a(lp54
S'-344'
p55
aa(lp56
S'-466'
p57
aS'-1772'
p58
aS'-51662'
p59
aa(lp60
S'-34'
p61
aS'-527'
p62
aS'-1101'
p63
aS'-1208'
p64
aS'-2617'
p65
aS'-4816'
p66
aS'-7439'
p67
aa(lp68
S'-3578'
p69
aS'-3793'
p70
aS'-3948'
p71
aS'-4306'
p72
aS'-4643'
p73
aS'-4963'
p74
aS'-4993'
p75
aS'-5349'
p76
aS'-5816'
p77
aS'-5952'
p78
aS'-6333'
p79
aS'-6539'
p80
aS'-7153'
p81
aS'-7318'
p82
aS'-8360'
p83
aS'-8368'
p84
aS'-8636'
p85
aS'-51662'
p86
aS'-58559'
p87
aS'-69122'
p88
aS'-72998'
p89
aa(lp90
S'-1012'
p91
aS'-2662'
p92
aS'-3100'
p93
aS'-7263'
p94
aS'-8376'
p95
aa(lp96
S'-45081'
p97
aS'-46062'
p98
aS'-56176'
p99
aS'-61123'
p100
aS'-73042'
p101
aa(lp102
S'-163'
p103
aS'-355'
p104
aS'-370'
p105
aS'-552'
p106
aS'-1090'
p107
aS'-1214'
p108
aS'-1380'
p109
aS'-1591'
p110
aS'-1681'
p111
aS'-1954'
p112
aS'-2054'
p113
aS'-2470'
p114
aS'-2640'
p115
aS'-2950'
p116
aS'-3793'
p117
aS'-4734'
p118
aS'-5060'
p119
aS'-7143'
p120
aa(lp121
S'-3911'
p122
aa(lp123
S'-1389'
p124
aS'-2617'
p125
aS'-3432'
p126
aa(lp127
S'-63'
p128
aS'-417'
p129
aS'-542'
p130
aS'-1021'
p131
aS'-1125'
p132
aS'-1194'
p133
aS'-1468'
p134
aS'-1541'
p135
aS'-2042'
p136
aS'-2060'
p137
aS'-2082'
p138
aS'-2381'
p139
aa(lp140
S'-442'
p141
aS'-1923'
p142
aa(lp143
a(lp144
S'-79'
p145
aa(lp146
S'-36'
p147
aS'-45'
p148
aS'-737'
p149
aa(lp150
S'-2371'
p151
aS'-70305'
p152
aa(lp153
a(lp154
a(lp155
S'-697'
p156
aa(lp157
a(lp158
S'-14'
p159
aa(lp160
a(lp161
S'-5060'
p162
aa(lp163
S'-258'
p164
aS'-355'
p165
aS'-661'
p166
aS'-780'
p167
aS'-888'
p168
aS'-912'
p169
aS'-1025'
p170
aS'-1293'
p171
aS'-1544'
p172
aS'-1721'
p173
aS'-2054'
p174
aS'-2559'
p175
aS'-2876'
p176
aS'-3615'
p177
aS'-3930'
p178
aS'-3996'
p179
aS'-4016'
p180
aS'-4090'
p181
aS'-4444'
p182
aS'-4638'
p183
aS'-5096'
p184
aS'-5378'
p185
aS'-5419'
p186
aS'-5540'
p187
aS'-6566'
p188
aS'-6889'
p189
aS'-7369'
p190
aS'-7374'
p191
aS'-8636'
p192
aS'-30749'
p193
aS'-33615'
p194
aS'-45517'
p195
aS'-46062'
p196
aS'-46723'
p197
aS'-53996'
p198
aS'-59615'
p199
aS'-62999'
p200
aS'-69526'
p201
aS'-71535'
p202
aS'-87520'
p203
aS'-99149'
p204
aS'-112370'
p205
aa(lp206
a(lp207
S'-1586'
p208
aS'-1591'
p209
aS'-1595'
p210
aS'-1681'
p211
aa(lp212
S'-333'
p213
aS'-4873'
p214
aa(lp215
S'-32'
p216
aS'-2338'
p217
aS'-2380'
p218
aS'-3254'
p219
aS'-5785'
p220
aS'-48385'
p221
aS'-55247'
p222
aa(lp223
S'-153'
p224
aS'-2340'
p225
aa(lp226
S'-1'
p227
aS'-1027'
p228
aS'-1375'
p229
aS'-1982'
p230
aS'-2420'
p231
aS'-2571'
p232
aS'-2947'
p233
aS'-3499'
p234
aS'-4011'
p235
aS'-4857'
p236
aS'-6157'
p237
aS'-6796'
p238
aS'-33794'
p239
aS'-34048'
p240
aS'-56251'
p241
aS'-56801'
p242
aS'-58559'
p243
aa(lp244
S'-48'
p245
aS'-1777'
p246
aS'-4886'
p247
aS'-6377'
p248
aa(lp249
S'-2568'
p250
aS'-2701'
p251
aa(lp252
a(lp253
S'-466'
p254
aS'-2617'
p255
aa(lp256
S'-867'
p257
aS'-2027'
p258
aa(lp259
S'-1183'
p260
aS'-1584'
p261
aS'-1748'
p262
aS'-1885'
p263
aS'-1921'
p264
aa(lp265
a(lp266
S'-6283'
p267
aa(lp268
S'-435'
p269
aS'-2717'
p270
aS'-5507'
p271
aS'-33158'
p272
aa(lp273
S'-34'
p274
aS'-355'
p275
aS'-653'
p276
aS'-661'
p277
aS'-1367'
p278
aS'-1911'
p279
aS'-2710'
p280
aS'-4015'
p281
aS'-4638'
p282
aS'-5218'
p283
aS'-6711'
p284
aS'-7361'
p285
aS'-8984'
p286
aa(lp287
S'-31'
p288
aa(lp289
a(lp290
a(lp291
S'-543'
p292
aS'-552'
p293
aS'-802'
p294
aS'-1215'
p295
aS'-1376'
p296
aS'-2395'
p297
aa(lp298
S'-62336'
p299
aa(lp300
S'-173'
p301
aS'-370'
p302
aS'-832'
p303
aS'-1302'
p304
aS'-1485'
p305
aS'-2406'
p306
aS'-7263'
p307
aS'-8596'
p308
aS'-32469'
p309
aa(lp310
S'-6335'
p311
aa(lp312
S'-2'
p313
aS'-3'
p314
aS'-19'
p315
aS'-39'
p316
aS'-42'
p317
aS'-65'
p318
aS'-70'
p319
aS'-71'
p320
aS'-75'
p321
aS'-87'
p322
aS'-88'
p323
aS'-95'
p324
aS'-135'
p325
aS'-144'
p326
aS'-145'
p327
aS'-153'
p328
aS'-170'
p329
aS'-172'
p330
aS'-181'
p331
aS'-185'
p332
aS'-216'
p333
aS'-231'
p334
aS'-248'
p335
aS'-256'
p336
aS'-261'
p337
aS'-327'
p338
aS'-344'
p339
aS'-355'
p340
aS'-364'
p341
aS'-366'
p342
aS'-367'
p343
aS'-374'
p344
aS'-377'
p345
aS'-410'
p346
aS'-416'
p347
aS'-419'
p348
aS'-436'
p349
aS'-440'
p350
aS'-455'
p351
aS'-457'
p352
aS'-466'
p353
aS'-500'
p354
aS'-524'
p355
aS'-531'
p356
aS'-585'
p357
aS'-586'
p358
aS'-587'
p359
aS'-588'
p360
aS'-597'
p361
aS'-603'
p362
aS'-653'
p363
aS'-724'
p364
aS'-733'
p365
aS'-736'
p366
aS'-737'
p367
aS'-742'
p368
aS'-762'
p369
aS'-786'
p370
aS'-818'
p371
aS'-839'
p372
aS'-886'
p373
aS'-920'
p374
aS'-1019'
p375
aS'-1037'
p376
aS'-1047'
p377
aS'-1097'
p378
aS'-1100'
p379
aS'-1198'
p380
aS'-1215'
p381
aS'-1291'
p382
aS'-1327'
p383
aS'-1370'
p384
aS'-1378'
p385
aS'-1405'
p386
aS'-1407'
p387
aS'-1438'
p388
aS'-1468'
p389
aS'-1485'
p390
aS'-1499'
p391
aS'-1515'
p392
aS'-1517'
p393
aS'-1562'
p394
aS'-1573'
p395
aS'-1588'
p396
aS'-1665'
p397
aS'-1681'
p398
aS'-1694'
p399
aS'-1869'
p400
aS'-1887'
p401
aS'-1917'
p402
aS'-1968'
p403
aS'-1969'
p404
aS'-1971'
p405
aS'-1974'
p406
aS'-1975'
p407
aS'-2001'
p408
aS'-2005'
p409
aS'-2054'
p410
aS'-2081'
p411
aS'-2115'
p412
aS'-2123'
p413
aS'-2124'
p414
aS'-2153'
p415
aS'-2167'
p416
aS'-2195'
p417
aS'-2273'
p418
aS'-2279'
p419
aS'-2296'
p420
aS'-2315'
p421
aS'-2338'
p422
aS'-2381'
p423
aS'-2396'
p424
aS'-2412'
p425
aS'-2428'
p426
aS'-2463'
p427
aS'-2470'
p428
aS'-2514'
p429
aS'-2525'
p430
aS'-2541'
p431
aS'-2571'
p432
aS'-2605'
p433
aS'-2606'
p434
aS'-2617'
p435
aS'-2683'
p436
aS'-2694'
p437
aS'-2699'
p438
aS'-2706'
p439
aS'-2710'
p440
aS'-2717'
p441
aS'-2770'
p442
aS'-2792'
p443
aS'-2793'
p444
aS'-2846'
p445
aS'-2918'
p446
aS'-2950'
p447
aS'-3243'
p448
aS'-3254'
p449
aS'-3257'
p450
aS'-3264'
p451
aS'-3275'
p452
aS'-3354'
p453
aS'-3418'
p454
aS'-3444'
p455
aS'-3623'
p456
aS'-3646'
p457
aS'-3683'
p458
aS'-3717'
p459
aS'-3751'
p460
aS'-3754'
p461
aS'-3755'
p462
aS'-3786'
p463
aS'-3802'
p464
aS'-3826'
p465
aS'-3835'
p466
aS'-3857'
p467
aS'-3956'
p468
aS'-3968'
p469
aS'-3969'
p470
aS'-3973'
p471
aS'-3977'
p472
aS'-4002'
p473
aS'-4006'
p474
aS'-4030'
p475
aS'-4124'
p476
aS'-4133'
p477
aS'-4229'
p478
aS'-4270'
p479
aS'-4340'
p480
aS'-4351'
p481
aS'-4367'
p482
aS'-4368'
p483
aS'-4369'
p484
aS'-4446'
p485
aS'-4447'
p486
aS'-4465'
p487
aS'-4466'
p488
aS'-4480'
p489
aS'-4519'
p490
aS'-4565'
p491
aS'-4571'
p492
aS'-4574'
p493
aS'-4638'
p494
aS'-4682'
p495
aS'-4718'
p496
aS'-4732'
p497
aS'-4744'
p498
aS'-4792'
p499
aS'-4816'
p500
aS'-4887'
p501
aS'-4896'
p502
aS'-4899'
p503
aS'-4915'
p504
aS'-4980'
p505
aS'-4993'
p506
aS'-5047'
p507
aS'-5053'
p508
aS'-5096'
p509
aS'-5103'
p510
aS'-5128'
p511
aS'-5218'
p512
aS'-5254'
p513
aS'-5364'
p514
aS'-5449'
p515
aS'-5459'
p516
aS'-5481'
p517
aS'-5524'
p518
aS'-5572'
p519
aS'-5784'
p520
aS'-5809'
p521
aS'-5942'
p522
aS'-5952'
p523
aS'-5962'
p524
aS'-5969'
p525
aS'-6057'
p526
aS'-6166'
p527
aS'-6281'
p528
aS'-6287'
p529
aS'-6304'
p530
aS'-6365'
p531
aS'-6373'
p532
aS'-6539'
p533
aS'-6541'
p534
aS'-6548'
p535
aS'-6586'
p536
aS'-6615'
p537
aS'-6793'
p538
aS'-6794'
p539
aS'-7101'
p540
aS'-7153'
p541
aS'-7173'
p542
aS'-7254'
p543
aS'-7261'
p544
aS'-7293'
p545
aS'-8640'
p546
aS'-8666'
p547
aS'-8810'
p548
aS'-8814'
p549
aS'-8912'
p550
aS'-8934'
p551
aS'-8959'
p552
aS'-8985'
p553
aS'-27075'
p554
aS'-27473'
p555
aS'-27664'
p556
aS'-27839'
p557
aS'-32019'
p558
aS'-32296'
p559
aS'-33166'
p560
aS'-33499'
p561
aS'-33629'
p562
aS'-33836'
p563
aS'-34437'
p564
aS'-36519'
p565
aS'-39446'
p566
aS'-40815'
p567
aS'-42721'
p568
aS'-43556'
p569
aS'-43967'
p570
aS'-44840'
p571
aS'-45501'
p572
aS'-45732'
p573
aS'-46965'
p574
aS'-47640'
p575
aS'-47997'
p576
aS'-48943'
p577
aS'-50147'
p578
aS'-52245'
p579
aS'-52462'
p580
aS'-54732'
p581
aS'-55830'
p582
aS'-63992'
p583
aS'-65731'
p584
aS'-67734'
p585
aS'-69093'
p586
aS'-69524'
p587
aS'-71302'
p588
aS'-72378'
p589
aa(lp590
S'-173'
p591
aS'-367'
p592
aS'-434'
p593
aS'-788'
p594
aS'-1556'
p595
aS'-2383'
p596
aS'-2412'
p597
aS'-2572'
p598
aS'-2628'
p599
aS'-2701'
p600
aS'-3825'
p601
aS'-3979'
p602
aS'-4265'
p603
aS'-4310'
p604
aS'-4701'
p605
aS'-5093'
p606
aS'-5459'
p607
aS'-5507'
p608
aS'-6006'
p609
aS'-6156'
p610
aS'-6548'
p611
aS'-6587'
p612
aS'-6595'
p613
aS'-7004'
p614
aS'-7376'
p615
aS'-7381'
p616
aS'-8860'
p617
aS'-27216'
p618
aS'-30810'
p619
aS'-32029'
p620
aS'-32596'
p621
aS'-33158'
p622
aS'-33679'
p623
aS'-40614'
p624
aS'-45210'
p625
aS'-45672'
p626
aS'-45722'
p627
aS'-52722'
p628
aS'-53125'
p629
aS'-53207'
p630
aS'-54648'
p631
aS'-58297'
p632
aS'-58315'
p633
aS'-59615'
p634
aS'-60037'
p635
aS'-60040'
p636
aS'-60363'
p637
aS'-60756'
p638
aS'-61361'
p639
aS'-62081'
p640
aS'-62203'
p641
aS'-65230'
p642
aS'-65802'
p643
aS'-69134'
p644
aS'-69278'
p645
aS'-72378'
p646
aS'-74532'
p647
aS'-74688'
p648
aS'-77561'
p649
aS'-78209'
p650
aS'-79251'
p651
aS'-79695'
p652
aS'-81782'
p653
aS'-82202'
p654
aS'-82852'
p655
aa(lp656
S'-316'
p657
aS'-344'
p658
aS'-589'
p659
aS'-780'
p660
aS'-940'
p661
aS'-1429'
p662
aS'-1588'
p663
aS'-1678'
p664
aS'-7449'
p665
aS'-31422'
p666
aa(lp667
S'-344'
p668
aa(lp669
S'-19'
p670
aS'-166'
p671
aS'-248'
p672
aS'-275'
p673
aS'-344'
p674
aS'-485'
p675
aS'-553'
p676
aS'-586'
p677
aS'-589'
p678
aS'-1473'
p679
aS'-2093'
p680
aS'-2496'
p681
aS'-2552'
p682
aS'-2718'
p683
aS'-2798'
p684
aS'-2799'
p685
aS'-2809'
p686
aS'-3248'
p687
aS'-3257'
p688
aS'-3437'
p689
aS'-4015'
p690
aS'-4233'
p691
aa(lp692
S'-1407'
p693
aS'-2710'
p694
aa(lp695
a(lp696
S'-370'
p697
aS'-432'
p698
aS'-2012'
p699
aS'-2817'
p700
aS'-3268'
p701
aS'-3593'
p702
aS'-3962'
p703
aS'-5504'
p704
aS'-6827'
p705
aS'-9004'
p706
aS'-32296'
p707
aa(lp708
a(lp709
a(lp710
a(lp711
S'-2516'
p712
aS'-2903'
p713
aa(lp714
S'-48'
p715
aS'-153'
p716
aS'-163'
p717
aS'-165'
p718
aS'-344'
p719
aS'-377'
p720
aS'-480'
p721
aS'-520'
p722
aS'-552'
p723
aS'-2054'
p724
aa(lp725
S'-2028'
p726
aa(lp727
a(lp728
a(lp729
a(lp730
S'-2294'
p731
aa(lp732
S'-3617'
p733
aa(lp734
a(lp735
a(lp736
S'-5'
p737
aS'-231'
p738
aS'-357'
p739
aS'-2294'
p740
aa(lp741
S'-97752'
p742
aa(lp743
a(lp744
a(lp745
S'-231'
p746
aS'-344'
p747
aS'-586'
p748
aS'-1073'
p749
aS'-45722'
p750
aS'-47465'
p751
aS'-48082'
p752
aS'-48322'
p753
aa(lp754
a(lp755
S'-2505'
p756
aS'-5481'
p757
aa(lp758
S'-480'
p759
aS'-1961'
p760
aa(lp761
S'-296'
p762
aa(lp763
S'-339'
p764
aa(lp765
a(lp766
S'-338'
p767
aa(lp768
a(lp769
S'-52'
p770
aS'-653'
p771
aS'-784'
p772
aa(lp773
a(lp774
S'-2710'
p775
aa(lp776
S'-455'
p777
aa(lp778
S'-168'
p779
aS'-783'
p780
aS'-917'
p781
aS'-2054'
p782
aS'-2700'
p783
aS'-4993'
p784
aS'-6358'
p785
aa(lp786
S'-44'
p787
aa(lp788
S'-1882'
p789
aS'-2541'
p790
aS'-2701'
p791
aS'-2702'
p792
aS'-3593'
p793
aS'-3596'
p794
aS'-3646'
p795
aS'-3821'
p796
aS'-3973'
p797
aS'-3979'
p798
aa(lp799
S'-282'
p800
aS'-3246'
p801
aa(lp802
a(lp803
a(lp804
a(lp805
S'-1676'
p806
aS'-2752'
p807
aS'-2989'
p808
aS'-3358'
p809
aa(lp810
S'-1265'
p811
aa(lp812
S'-1562'
p813
aS'-2018'
p814
aS'-2153'
p815
aS'-2382'
p816
aS'-2383'
p817
aS'-2389'
p818
aa(lp819
S'-175'
p820
aS'-266'
p821
aS'-4159'
p822
aS'-4262'
p823
aa(lp824
a(lp825
S'-1206'
p826
aa(lp827
S'-374'
p828
aS'-784'
p829
aS'-3052'
p830
aS'-4638'
p831
aS'-4678'
p832
aS'-8917'
p833
aS'-35836'
p834
aS'-54503'
p835
aa(lp836
a(lp837
S'-168'
p838
aS'-376'
p839
aS'-527'
p840
aS'-858'
p841
aS'-912'
p842
aS'-1193'
p843
aS'-1212'
p844
aS'-1282'
p845
aS'-2424'
p846
aS'-3435'
p847
aS'-6016'
p848
aS'-7502'
p849
aa(lp850
S'-231'
p851
aa(lp852
a(lp853
S'-1258'
p854
aS'-1391'
p855
aS'-3100'
p856
aS'-3185'
p857
aS'-4161'
p858
aS'-4776'
p859
aS'-4867'
p860
aa(lp861
a(lp862
a(lp863
S'-2109'
p864
aa(lp865
S'-464'
p866
aS'-849'
p867
aS'-3593'
p868
aS'-3752'
p869
aS'-3879'
p870
aa(lp871
S'-2340'
p872
aa(lp873
S'-1653'
p874
aS'-1721'
p875
aS'-2321'
p876
aa(lp877
S'-306'
p878
aS'-743'
p879
aS'-2108'
p880
aS'-2478'
p881
aS'-3247'
p882
aS'-3252'
p883
aS'-3362'
p884
aS'-3698'
p885
aa(lp886
S'-6482'
p887
aa(lp888
S'-239'
p889
aS'-1282'
p890
aS'-1920'
p891
aS'-2092'
p892
aa(lp893
S'-1289'
p894
aS'-2107'
p895
aS'-2338'
p896
aS'-2657'
p897
aS'-3273'
p898
aS'-4734'
p899
aS'-6482'
p900
aS'-8578'
p901
aS'-8666'
p902
aS'-8912'
p903
aS'-27488'
p904
aS'-58291'
p905
aS'-58293'
p906
aS'-59040'
p907
aS'-61348'
p908
aS'-70336'
p909
aS'-72308'
p910
aS'-74752'
p911
aS'-74864'
p912
aa(lp913
S'-208'
p914
aS'-380'
p915
aS'-592'
p916
aa(lp917
S'-19'
p918
aS'-169'
p919
aS'-332'
p920
aS'-367'
p921
aS'-370'
p922
aS'-405'
p923
aS'-415'
p924
aS'-420'
p925
aS'-429'
p926
aS'-434'
p927
aS'-435'
p928
aS'-519'
p929
aS'-585'
p930
aS'-586'
p931
aS'-587'
p932
aS'-597'
p933
aS'-891'
p934
aS'-1011'
p935
aS'-1036'
p936
aS'-1092'
p937
aS'-1097'
p938
aS'-1100'
p939
aS'-1105'
p940
aS'-1191'
p941
aS'-1322'
p942
aS'-1325'
p943
aS'-1339'
p944
aS'-1342'
p945
aS'-1343'
p946
aS'-1347'
p947
aS'-1370'
p948
aS'-1380'
p949
aS'-1381'
p950
aS'-1387'
p951
aS'-1388'
p952
aS'-1389'
p953
aS'-1461'
p954
aS'-1499'
p955
aS'-1517'
p956
aS'-1544'
p957
aS'-1556'
p958
aS'-1595'
p959
aS'-1663'
p960
aS'-1690'
p961
aS'-1721'
p962
aS'-1760'
p963
aS'-1862'
p964
aS'-1918'
p965
aS'-1954'
p966
aS'-1969'
p967
aS'-1971'
p968
aS'-1972'
p969
aS'-1973'
p970
aS'-1974'
p971
aS'-1975'
p972
aS'-1976'
p973
aS'-1977'
p974
aS'-1978'
p975
aS'-1979'
p976
aS'-1980'
p977
aS'-1981'
p978
aS'-1984'
p979
aS'-1985'
p980
aS'-1986'
p981
aS'-2002'
p982
aS'-2009'
p983
aS'-2012'
p984
aS'-2013'
p985
aS'-2014'
p986
aS'-2041'
p987
aS'-2051'
p988
aS'-2053'
p989
aS'-2054'
p990
aS'-2081'
p991
aS'-2119'
p992
aS'-2121'
p993
aS'-2134'
p994
aS'-2263'
p995
aS'-2269'
p996
aS'-2316'
p997
aS'-2328'
p998
aS'-2369'
p999
aS'-2372'
p1000
aS'-2378'
p1001
aS'-2379'
p1002
aS'-2380'
p1003
aS'-2381'
p1004
aS'-2382'
p1005
aS'-2383'
p1006
aS'-2402'
p1007
aS'-2404'
p1008
aS'-2406'
p1009
aS'-2407'
p1010
aS'-2408'
p1011
aS'-2409'
p1012
aS'-2410'
p1013
aS'-2411'
p1014
aS'-2412'
p1015
aS'-2420'
p1016
aS'-2421'
p1017
aS'-2422'
p1018
aS'-2423'
p1019
aS'-2448'
p1020
aS'-2456'
p1021
aS'-2459'
p1022
aS'-2460'
p1023
aS'-2462'
p1024
aS'-2471'
p1025
aS'-2513'
p1026
aS'-2515'
p1027
aS'-2516'
p1028
aS'-2517'
p1029
aS'-2520'
p1030
aS'-2521'
p1031
aS'-2522'
p1032
aS'-2524'
p1033
aS'-2525'
p1034
aS'-2529'
p1035
aS'-2531'
p1036
aS'-2532'
p1037
aS'-2534'
p1038
aS'-2536'
p1039
aS'-2537'
p1040
aS'-2555'
p1041
aS'-2605'
p1042
aS'-2628'
p1043
aS'-2641'
p1044
aS'-2642'
p1045
aS'-2683'
p1046
aS'-2699'
p1047
aS'-2700'
p1048
aS'-2746'
p1049
aS'-2792'
p1050
aS'-2794'
p1051
aS'-2827'
p1052
aS'-2916'
p1053
aS'-2942'
p1054
aS'-2953'
p1055
aS'-2987'
p1056
aS'-3017'
p1057
aS'-3026'
p1058
aS'-3033'
p1059
aS'-3040'
p1060
aS'-3041'
p1061
aS'-3042'
p1062
aS'-3043'
p1063
aS'-3070'
p1064
aS'-3082'
p1065
aS'-3159'
p1066
aS'-3189'
p1067
aS'-3300'
p1068
aS'-3354'
p1069
aS'-3535'
p1070
aS'-3593'
p1071
aS'-3755'
p1072
aS'-3910'
p1073
aS'-3999'
p1074
aS'-4020'
p1075
aS'-4056'
p1076
aa(lp1077
S'-2959'
p1078
aa(lp1079
S'-36'
p1080
aa(lp1081
S'-1097'
p1082
aa(lp1083
a(lp1084
a(lp1085
S'-1792'
p1086
aa(lp1087
S'-193'
p1088
aS'-762'
p1089
aa(lp1090
a(lp1091
a(lp1092
S'-725'
p1093
aS'-813'
p1094
aa(lp1095
S'-2382'
p1096
aS'-57640'
p1097
aS'-73321'
p1098
aa(lp1099
a(lp1100
a(lp1101
a(lp1102
S'-158'
p1103
aa(lp1104
S'-762'
p1105
aS'-1673'
p1106
aS'-2719'
p1107
aa(lp1108
a(lp1109
S'-19'
p1110
aS'-160'
p1111
aS'-231'
p1112
aS'-344'
p1113
aa(lp1114
S'-420'
p1115
aa(lp1116
S'-780'
p1117
aS'-4155'
p1118
aS'-4914'
p1119
aS'-5269'
p1120
aa(lp1121
S'-12'
p1122
aa(lp1123
a(lp1124
a(lp1125
S'-1608'
p1126
aS'-1644'
p1127
aS'-1717'
p1128
aa(lp1129
S'-17'
p1130
aS'-1215'
p1131
aS'-3015'
p1132
aS'-3016'
p1133
aa(lp1134
S'-46'
p1135
aS'-193'
p1136
aS'-383'
p1137
aS'-661'
p1138
aS'-785'
p1139
aS'-798'
p1140
aS'-1085'
p1141
aS'-1089'
p1142
aS'-1387'
p1143
aS'-1407'
p1144
aa(lp1145
S'-435'
p1146
aS'-1037'
p1147
aS'-1320'
p1148
aa(lp1149
a(lp1150
S'-19'
p1151
aS'-653'
p1152
aS'-2683'
p1153
aS'-2710'
p1154
aa(lp1155
S'-1416'
p1156
aa(lp1157
S'-508'
p1158
aS'-788'
p1159
aS'-1391'
p1160
aS'-1407'
p1161
aS'-1544'
p1162
aS'-2054'
p1163
aS'-2338'
p1164
aS'-2710'
p1165
aS'-2716'
p1166
aS'-2985'
p1167
aa(lp1168
S'-316'
p1169
aa(lp1170
S'-1327'
p1171
aS'-5244'
p1172
aa(lp1173
S'-24'
p1174
aS'-153'
p1175
aS'-193'
p1176
aS'-466'
p1177
aS'-1721'
p1178
aS'-2700'
p1179
aS'-2710'
p1180
aS'-3556'
p1181
aS'-85796'
p1182
aS'-101285'
p1183
aS'-114670'
p1184
aa(lp1185
S'-719'
p1186
aa(lp1187
a(lp1188
a(lp1189
S'-32'
p1190
aS'-592'
p1191
aS'-708'
p1192
aS'-1271'
p1193
aS'-1500'
p1194
aS'-2712'
p1195
aS'-2791'
p1196
aS'-7361'
p1197
aa(lp1198
S'-348'
p1199
aa(lp1200
S'-780'
p1201
aa(lp1202
S'-719'
p1203
aS'-837'
p1204
aa(lp1205
S'-65'
p1206
aS'-2792'
p1207
aS'-3298'
p1208
aS'-3555'
p1209
aa(lp1210
S'-233'
p1211
aS'-2701'
p1212
aa(lp1213
S'-405'
p1214
aS'-3638'
p1215
aS'-3889'
p1216
aS'-4643'
p1217
aS'-6996'
p1218
aS'-8985'
p1219
aS'-43836'
p1220
aS'-52722'
p1221
aa(lp1222
S'-2076'
p1223
aa(lp1224
S'-2734'
p1225
aa(lp1226
S'-315'
p1227
aS'-435'
p1228
aS'-1721'
p1229
aS'-1866'
p1230
aS'-2167'
p1231
aS'-3717'
p1232
aS'-3755'
p1233
aS'-3972'
p1234
aS'-4047'
p1235
aS'-6548'
p1236
aa(lp1237
a(lp1238
S'-261'
p1239
aS'-501'
p1240
aS'-590'
p1241
aS'-750'
p1242
aS'-899'
p1243
aS'-1173'
p1244
aS'-1183'
p1245
aS'-1222'
p1246
aS'-1663'
p1247
aS'-1673'
p1248
aS'-1954'
p1249
aS'-2006'
p1250
aS'-2100'
p1251
aS'-2395'
p1252
aS'-2406'
p1253
aS'-2529'
p1254
aS'-2565'
p1255
aS'-2797'
p1256
aS'-3039'
p1257
aS'-3160'
p1258
aS'-3255'
p1259
aS'-3479'
p1260
aS'-3599'
p1261
aS'-3676'
p1262
aS'-4361'
p1263
aS'-4754'
p1264
aS'-4912'
p1265
aS'-6134'
p1266
aS'-6485'
p1267
aS'-6521'
p1268
aS'-6658'
p1269
aS'-7247'
p1270
aS'-7283'
p1271
aa(lp1272
S'-19'
p1273
aa(lp1274
a(lp1275
S'-105'
p1276
aS'-198'
p1277
aS'-466'
p1278
aS'-539'
p1279
aS'-595'
p1280
aS'-662'
p1281
aS'-2100'
p1282
aS'-2302'
p1283
aS'-3176'
p1284
aa(lp1285
S'-858'
p1286
aS'-1029'
p1287
aS'-1221'
p1288
aS'-2078'
p1289
aS'-2683'
p1290
aS'-3256'
p1291
aS'-3988'
p1292
aS'-6537'
p1293
aS'-31658'
p1294
aS'-51662'
p1295
aS'-53996'
p1296
aS'-55247'
p1297
aS'-69122'
p1298
aa(lp1299
S'-3147'
p1300
aa(lp1301
a(lp1302
a(lp1303
a(lp1304
S'-784'
p1305
aS'-4006'
p1306
aa(lp1307
S'-720'
p1308
aS'-1148'
p1309
aS'-2125'
p1310
aS'-2359'
p1311
aS'-2594'
p1312
aS'-7136'
p1313
aa(lp1314
S'-34'
p1315
aS'-193'
p1316
aS'-587'
p1317
aa(lp1318
a(lp1319
S'-16'
p1320
aS'-32'
p1321
aS'-296'
p1322
aS'-785'
p1323
aS'-1673'
p1324
aS'-1923'
p1325
aS'-2571'
p1326
aS'-2706'
p1327
aS'-2710'
p1328
aS'-2805'
p1329
aS'-2858'
p1330
aS'-2907'
p1331
aS'-3157'
p1332
aS'-3174'
p1333
aS'-3617'
p1334
aS'-3752'
p1335
aS'-3968'
p1336
aS'-4262'
p1337
aS'-4308'
p1338
aS'-4370'
p1339
aS'-4734'
p1340
aS'-4759'
p1341
aS'-4979'
p1342
aS'-5015'
p1343
aS'-5131'
p1344
aS'-5679'
p1345
aS'-34767'
p1346
aS'-40278'
p1347
aS'-40581'
p1348
aS'-44191'
p1349
aS'-45447'
p1350
aS'-49110'
p1351
aa(lp1352
S'-160'
p1353
aS'-173'
p1354
aS'-924'
p1355
aS'-1077'
p1356
aS'-1965'
p1357
aS'-2005'
p1358
aS'-2450'
p1359
aS'-2455'
p1360
aS'-2456'
p1361
aS'-2498'
p1362
aS'-2968'
p1363
aS'-2985'
p1364
aS'-3024'
p1365
aa(lp1366
S'-1367'
p1367
aS'-1844'
p1368
aS'-2053'
p1369
aS'-2367'
p1370
aS'-3083'
p1371
aS'-3275'
p1372
aS'-3301'
p1373
aS'-3409'
p1374
aS'-4084'
p1375
aS'-6373'
p1376
aS'-7381'
p1377
aS'-8973'
p1378
aS'-27020'
p1379
aS'-27788'
p1380
aS'-31952'
p1381
aS'-44694'
p1382
aS'-47200'
p1383
aS'-55100'
p1384
aS'-55278'
p1385
aS'-57669'
p1386
aS'-65567'
p1387
aS'-68205'
p1388
aS'-71670'
p1389
aS'-74851'
p1390
aS'-78088'
p1391
aS'-91474'
p1392
aS'-92966'
p1393
aS'-94011'
p1394
aa(lp1395
a(lp1396
S'-181'
p1397
aS'-231'
p1398
aS'-319'
p1399
aS'-585'
p1400
aa(lp1401
S'-361'
p1402
aS'-2628'
p1403
aa(lp1404
S'-1459'
p1405
aS'-2467'
p1406
aS'-2961'
p1407
aS'-2968'
p1408
aS'-3113'
p1409
aa(lp1410
S'-671'
p1411
aS'-1127'
p1412
aS'-1129'
p1413
aS'-1274'
p1414
aS'-1653'
p1415
aS'-1909'
p1416
aS'-2105'
p1417
aS'-2346'
p1418
aS'-2363'
p1419
aS'-2527'
p1420
aS'-3758'
p1421
aS'-3793'
p1422
aS'-3994'
p1423
aS'-4006'
p1424
aa(lp1425
S'-743'
p1426
aS'-1591'
p1427
aS'-3273'
p1428
aa(lp1429
S'-181'
p1430
aS'-788'
p1431
aS'-1080'
p1432
aS'-1125'
p1433
aS'-1210'
p1434
aS'-1307'
p1435
aS'-2067'
p1436
aS'-2872'
p1437
aS'-4022'
p1438
aS'-4975'
p1439
aS'-5378'
p1440
aa(lp1441
a(lp1442
S'-1'
p1443
aS'-329'
p1444
aS'-1376'
p1445
aS'-2150'
p1446
aS'-2384'
p1447
aS'-2700'
p1448
aS'-2802'
p1449
aS'-3155'
p1450
aS'-3259'
p1451
aa(lp1452
a(lp1453
S'-19'
p1454
aS'-165'
p1455
aS'-196'
p1456
aS'-208'
p1457
aS'-231'
p1458
aS'-253'
p1459
aS'-316'
p1460
aS'-344'
p1461
aS'-367'
p1462
aS'-434'
p1463
aS'-440'
p1464
aa(lp1465
S'-260'
p1466
aS'-5995'
p1467
aS'-55280'
p1468
aa(lp1469
S'-2391'
p1470
aS'-2987'
p1471
aS'-3160'
p1472
aS'-3979'
p1473
aa(lp1474
S'-296'
p1475
aS'-344'
p1476
aa(lp1477
S'-1282'
p1478
aS'-4734'
p1479
aa(lp1480
S'-2265'
p1481
aS'-5669'
p1482
aa(lp1483
S'-784'
p1484
aS'-2054'
p1485
aa(lp1486
a(lp1487
a(lp1488
S'-158'
p1489
aS'-204'
p1490
aS'-661'
p1491
aa(lp1492
a(lp1493
S'-1198'
p1494
aa(lp1495
S'-2881'
p1496
aa(lp1497
S'-6365'
p1498
aS'-6370'
p1499
aa(lp1500
S'-212'
p1501
aS'-4143'
p1502
aS'-4224'
p1503
aS'-4266'
p1504
aS'-4721'
p1505
aS'-4852'
p1506
aS'-4868'
p1507
aS'-4875'
p1508
aS'-4876'
p1509
aS'-4899'
p1510
aS'-4974'
p1511
aa(lp1512
S'-19'
p1513
aS'-181'
p1514
aS'-1035'
p1515
aS'-1707'
p1516
aS'-1731'
p1517
aS'-2382'
p1518
aS'-2383'
p1519
aS'-3268'
p1520
aS'-3593'
p1521
aS'-4022'
p1522
aS'-4124'
p1523
aS'-4749'
p1524
aS'-5452'
p1525
aS'-6951'
p1526
aS'-7701'
p1527
aa(lp1528
S'-434'
p1529
aa(lp1530
a(lp1531
S'-2028'
p1532
aa(lp1533
S'-158'
p1534
aS'-1276'
p1535
aS'-3101'
p1536
aS'-3608'
p1537
aS'-3703'
p1538
aS'-3751'
p1539
aS'-4128'
p1540
aS'-4232'
p1541
aS'-6218'
p1542
aS'-6593'
p1543
aS'-31221'
p1544
aS'-39183'
p1545
aS'-49649'
p1546
aS'-108190'
p1547
aS'-108945'
p1548
aS'-109673'
p1549
aS'-110127'
p1550
aS'-111743'
p1551
aS'-112370'
p1552
aa(lp1553
a(lp1554
a(lp1555
a(lp1556
S'-3408'
p1557
aS'-5294'
p1558
aS'-8665'
p1559
aa(lp1560
S'-293'
p1561
aS'-1203'
p1562
aS'-2959'
p1563
aS'-74458'
p1564
aS'-84152'
p1565
aS'-91658'
p1566
aS'-97304'
p1567
aS'-109487'
p1568
aa(lp1569
S'-880'
p1570
aa(lp1571
a(lp1572
S'-2657'
p1573
aS'-5419'
p1574
aS'-7846'
p1575
aS'-50806'
p1576
aS'-57532'
p1577
aS'-77665'
p1578
aa(lp1579
a(lp1580
a(lp1581
S'-1464'
p1582
aS'-1556'
p1583
aS'-1590'
p1584
aS'-1611'
p1585
aS'-1732'
p1586
aS'-2712'
p1587
aS'-3257'
p1588
aa(lp1589
S'-370'
p1590
aS'-1183'
p1591
aa(lp1592
S'-55276'
p1593
aa(lp1594
S'-2617'
p1595
aa(lp1596
S'-168'
p1597
aS'-435'
p1598
aa(lp1599
S'-39'
p1600
aS'-2036'
p1601
aS'-2706'
p1602
aa(lp1603
S'-527'
p1604
aS'-593'
p1605
aS'-4232'
p1606
aS'-4973'
p1607
aS'-7373'
p1608
aS'-60069'
p1609
aS'-63082'
p1610
aa(lp1611
S'-180'
p1612
aS'-231'
p1613
aS'-1431'
p1614
aS'-1831'
p1615
aS'-1974'
p1616
aS'-3024'
p1617
aa(lp1618
a(lp1619
S'-153'
p1620
aS'-157'
p1621
aS'-158'
p1622
aS'-173'
p1623
aS'-288'
p1624
aS'-333'
p1625
aS'-343'
p1626
aS'-344'
p1627
aS'-420'
p1628
aS'-429'
p1629
aS'-612'
p1630
aS'-661'
p1631
aS'-809'
p1632
aS'-1126'
p1633
aS'-1129'
p1634
aS'-1191'
p1635
aS'-1377'
p1636
aS'-1381'
p1637
aS'-1391'
p1638
aS'-1417'
p1639
aS'-1556'
p1640
aS'-1711'
p1641
aS'-2007'
p1642
aS'-2259'
p1643
aS'-2450'
p1644
aS'-2712'
p1645
aS'-2718'
p1646
aS'-2719'
p1647
aS'-2735'
p1648
aS'-2799'
p1649
aS'-2829'
p1650
aS'-3254'
p1651
aS'-3258'
p1652
aS'-3268'
p1653
aS'-3436'
p1654
aa(lp1655
S'-237'
p1656
aS'-305'
p1657
aS'-413'
p1658
aa(lp1659
a(lp1660
S'-4447'
p1661
aS'-5620'
p1662
aS'-5679'
p1663
aS'-6287'
p1664
aS'-6711'
p1665
aa(lp1666
S'-880'
p1667
aa(lp1668
a(lp1669
S'-168'
p1670
aS'-208'
p1671
aS'-231'
p1672
aS'-344'
p1673
aS'-367'
p1674
aS'-783'
p1675
aS'-2513'
p1676
aS'-3623'
p1677
aS'-4310'
p1678
aa(lp1679
S'-1590'
p1680
aS'-2420'
p1681
aS'-2431'
p1682
aS'-2717'
p1683
aa(lp1684
S'-552'
p1685
aS'-2995'
p1686
aa(lp1687
S'-1588'
p1688
aS'-2380'
p1689
aS'-2382'
p1690
aa(lp1691
S'-5452'
p1692
aS'-7318'
p1693
aa(lp1694
S'-126'
p1695
aS'-208'
p1696
aS'-374'
p1697
aS'-405'
p1698
aS'-519'
p1699
aS'-783'
p1700
aS'-1381'
p1701
aS'-2162'
p1702
aS'-2411'
p1703
aS'-2412'
p1704
aS'-2514'
p1705
aS'-2799'
p1706
aS'-4104'
p1707
aS'-4125'
p1708
aS'-4142'
p1709
aS'-4686'
p1710
aS'-4985'
p1711
aS'-5694'
p1712
aS'-5832'
p1713
aS'-6464'
p1714
aS'-6483'
p1715
aS'-6587'
p1716
aS'-31698'
p1717
aS'-42721'
p1718
aa(lp1719
S'-4226'
p1720
aa(lp1721
a(lp1722
a(lp1723
a(lp1724
a(lp1725
S'-2'
p1726
aS'-541'
p1727
aS'-786'
p1728
aS'-1517'
p1729
aS'-2683'
p1730
aS'-3793'
p1731
aS'-4105'
p1732
aS'-4306'
p1733
aS'-4720'
p1734
aS'-4963'
p1735
aS'-5055'
p1736
aa(lp1737
S'-1499'
p1738
aS'-1681'
p1739
aS'-2567'
p1740
aS'-3173'
p1741
aS'-3243'
p1742
aS'-3450'
p1743
aS'-8361'
p1744
aa(lp1745
S'-2279'
p1746
aS'-2296'
p1747
aS'-2447'
p1748
aa(lp1749
S'-329'
p1750
aa(lp1751
S'-585'
p1752
aa(lp1753
S'-344'
p1754
aa(lp1755
S'-104'
p1756
aS'-1249'
p1757
aa(lp1758
S'-31'
p1759
aS'-105'
p1760
aS'-261'
p1761
aS'-474'
p1762
aS'-762'
p1763
aS'-852'
p1764
aS'-858'
p1765
aS'-912'
p1766
aS'-1047'
p1767
aS'-1088'
p1768
aS'-1221'
p1769
aS'-1285'
p1770
aS'-1339'
p1771
aS'-1343'
p1772
aS'-1876'
p1773
aS'-2125'
p1774
aS'-2294'
p1775
aS'-2324'
p1776
aS'-3147'
p1777
aS'-3255'
p1778
aS'-5618'
p1779
aS'-38499'
p1780
aS'-49272'
p1781
aS'-49530'
p1782
aS'-55276'
p1783
aS'-55286'
p1784
aS'-56885'
p1785
aa(lp1786
S'-256'
p1787
aa(lp1788
S'-1970'
p1789
aS'-1997'
p1790
aa(lp1791
a(lp1792
a(lp1793
S'-1587'
p1794
aS'-2004'
p1795
aS'-58293'
p1796
aa(lp1797
S'-1586'
p1798
aS'-1595'
p1799
aS'-1687'
p1800
aS'-1713'
p1801
aa(lp1802
S'-272'
p1803
aS'-356'
p1804
aS'-585'
p1805
aS'-909'
p1806
aS'-919'
p1807
aS'-924'
p1808
aS'-1302'
p1809
aS'-1347'
p1810
aS'-1416'
p1811
aS'-1727'
p1812
aS'-2324'
p1813
aS'-2335'
p1814
aS'-2686'
p1815
aS'-3753'
p1816
aS'-4571'
p1817
aS'-4700'
p1818
aS'-6367'
p1819
aS'-6593'
p1820
aS'-8526'
p1821
aS'-8784'
p1822
aa(lp1823
S'-4388'
p1824
aS'-6482'
p1825
aa(lp1826
a(lp1827
S'-65'
p1828
aS'-110'
p1829
aS'-673'
p1830
aS'-1556'
p1831
aS'-2046'
p1832
aS'-2449'
p1833
aS'-2555'
p1834
aS'-2720'
p1835
aS'-2722'
p1836
aS'-3157'
p1837
aS'-3593'
p1838
aS'-3820'
p1839
aS'-3997'
p1840
aS'-4015'
p1841
aS'-4367'
p1842
aS'-6333'
p1843
aS'-6503'
p1844
aS'-6794'
p1845
aS'-6951'
p1846
aS'-6995'
p1847
aS'-6996'
p1848
aS'-8666'
p1849
aS'-8830'
p1850
aS'-31698'
p1851
aS'-61348'
p1852
aS'-67255'
p1853
aS'-84312'
p1854
aa(lp1855
S'-1456'
p1856
aS'-3260'
p1857
aa(lp1858
S'-608'
p1859
aS'-2395'
p1860
aS'-2953'
p1861
aa(lp1862
a(lp1863
S'-2023'
p1864
aa(lp1865
S'-370'
p1866
aS'-544'
p1867
aa(lp1868
a(lp1869
a(lp1870
a(lp1871
S'-65'
p1872
aS'-737'
p1873
aS'-778'
p1874
aS'-784'
p1875
aS'-833'
p1876
aS'-891'
p1877
aS'-1367'
p1878
aS'-1391'
p1879
aa(lp1880
S'-158'
p1881
aS'-435'
p1882
aS'-1639'
p1883
aS'-2006'
p1884
aa(lp1885
a(lp1886
S'-2628'
p1887
aa(lp1888
S'-2699'
p1889
aS'-2900'
p1890
aS'-3752'
p1891
aa(lp1892
a(lp1893
a(lp1894
S'-17'
p1895
aS'-172'
p1896
aa(lp1897
a(lp1898
S'-2054'
p1899
aa(lp1900
S'-5879'
p1901
aa(lp1902
S'-719'
p1903
aS'-2490'
p1904
aS'-2723'
p1905
aa(lp1906
S'-1136'
p1907
aS'-6157'
p1908
aS'-6534'
p1909
aS'-6807'
p1910
aS'-7367'
p1911
aS'-31221'
p1912
aS'-46970'
p1913
aS'-50798'
p1914
aS'-53464'
p1915
aS'-67695'
p1916
aS'-68205'
p1917
aS'-80846'
p1918
aa(lp1919
S'-2965'
p1920
aa(lp1921
a(lp1922
S'-19'
p1923
aa(lp1924
S'-2208'
p1925
aS'-2673'
p1926
aS'-3052'
p1927
aa(lp1928
S'-1100'
p1929
aS'-1416'
p1930
aS'-2371'
p1931
aS'-3257'
p1932
aS'-3608'
p1933
aS'-4321'
p1934
aa(lp1935
S'-4079'
p1936
aa(lp1937
a(lp1938
S'-193'
p1939
aS'-434'
p1940
aa(lp1941
S'-1388'
p1942
aS'-2581'
p1943
aS'-8371'
p1944
aS'-32587'
p1945
aS'-33679'
p1946
aa(lp1947
S'-4255'
p1948
aS'-5478'
p1949
aS'-6291'
p1950
aS'-6874'
p1951
aS'-7438'
p1952
aS'-8666'
p1953
aS'-33495'
p1954
aS'-36535'
p1955
aS'-45442'
p1956
aS'-46578'
p1957
aS'-48394'
p1958
aS'-54995'
p1959
aS'-56367'
p1960
aS'-63992'
p1961
aS'-72378'
p1962
aa(lp1963
S'-19'
p1964
aS'-231'
p1965
aS'-344'
p1966
aS'-355'
p1967
aS'-364'
p1968
aS'-634'
p1969
aS'-762'
p1970
aS'-885'
p1971
aS'-1287'
p1972
aS'-1499'
p1973
aS'-1760'
p1974
aS'-2448'
p1975
aS'-3268'
p1976
aS'-3272'
p1977
aS'-3275'
p1978
aS'-4848'
p1979
aS'-4867'
p1980
aS'-5349'
p1981
aS'-5530'
p1982
aS'-5591'
p1983
aS'-6987'
p1984
aS'-7701'
p1985
aS'-27899'
p1986
aS'-32019'
p1987
aa(lp1988
a(lp1989
S'-169'
p1990
aS'-243'
p1991
aa(lp1992
a(lp1993
a(lp1994
S'-480'
p1995
aS'-736'
p1996
aS'-780'
p1997
aS'-788'
p1998
aS'-1036'
p1999
aS'-1372'
p2000
aS'-1375'
p2001
aS'-1376'
p2002
aS'-2105'
p2003
aS'-2194'
p2004
aS'-2402'
p2005
aS'-2406'
p2006
aS'-2470'
p2007
aS'-3519'
p2008
aS'-3704'
p2009
aS'-4042'
p2010
aS'-4327'
p2011
aS'-4339'
p2012
aS'-5459'
p2013
aS'-8644'
p2014
aa(lp2015
S'-1721'
p2016
aS'-2571'
p2017
aa(lp2018
a(lp2019
S'-253'
p2020
aS'-316'
p2021
aS'-592'
p2022
aa(lp2023
S'-1099'
p2024
aS'-2053'
p2025
aS'-2083'
p2026
aa(lp2027
S'-204'
p2028
aS'-370'
p2029
aS'-762'
p2030
aS'-1676'
p2031
aS'-2490'
p2032
aS'-2550'
p2033
aS'-5872'
p2034
aS'-5881'
p2035
aS'-5945'
p2036
aS'-6212'
p2037
aS'-6535'
p2038
aS'-6537'
p2039
aS'-6548'
p2040
aS'-6564'
p2041
aS'-6586'
p2042
aS'-6587'
p2043
aS'-6615'
p2044
aa(lp2045
S'-112'
p2046
aS'-592'
p2047
aa(lp2048
S'-162'
p2049
aS'-1206'
p2050
aS'-2333'
p2051
aa(lp2052
a(lp2053
a(lp2054
S'-19'
p2055
aS'-39'
p2056
aS'-1717'
p2057
aS'-1923'
p2058
aa(lp2059
S'-288'
p2060
aS'-435'
p2061
aa(lp2062
S'-1917'
p2063
aa(lp2064
S'-318'
p2065
aS'-356'
p2066
aS'-541'
p2067
aS'-661'
p2068
aS'-1147'
p2069
aS'-1361'
p2070
aS'-1495'
p2071
aS'-2770'
p2072
aS'-5224'
p2073
aS'-5675'
p2074
aS'-6483'
p2075
aS'-6537'
p2076
aS'-6869'
p2077
aS'-6934'
p2078
aS'-6935'
p2079
aS'-7115'
p2080
aS'-7932'
p2081
aS'-8755'
p2082
aS'-26524'
p2083
aS'-38304'
p2084
aS'-53024'
p2085
aS'-54268'
p2086
aS'-55156'
p2087
aS'-60291'
p2088
aS'-60382'
p2089
aa(lp2090
S'-2413'
p2091
aS'-3945'
p2092
aa(lp2093
a(lp2094
S'-168'
p2095
aS'-169'
p2096
aS'-265'
p2097
aS'-356'
p2098
aS'-500'
p2099
aS'-788'
p2100
aS'-1021'
p2101
aS'-2709'
p2102
aS'-2846'
p2103
aS'-3067'
p2104
aS'-3267'
p2105
aS'-3751'
p2106
aS'-3948'
p2107
aS'-5669'
p2108
aS'-6373'
p2109
aS'-7259'
p2110
aS'-8907'
p2111
aS'-31447'
p2112
aS'-34624'
p2113
aa(lp2114
a(lp2115
a(lp2116
a(lp2117
a(lp2118
S'-260'
p2119
aS'-273'
p2120
aS'-610'
p2121
aS'-720'
p2122
aS'-799'
p2123
aS'-912'
p2124
aS'-1093'
p2125
aS'-1175'
p2126
aS'-1208'
p2127
aS'-1261'
p2128
aS'-1272'
p2129
aS'-1373'
p2130
aS'-1476'
p2131
aS'-2005'
p2132
aS'-2018'
p2133
aS'-2872'
p2134
aS'-3147'
p2135
aS'-3354'
p2136
aS'-5991'
p2137
aS'-69134'
p2138
aa(lp2139
S'-2322'
p2140
aa(lp2141
S'-370'
p2142
aS'-2475'
p2143
aS'-2530'
p2144
aS'-3276'
p2145
aa(lp2146
S'-393'
p2147
aS'-7347'
p2148
aS'-33615'
p2149
aa(lp2150
a(lp2151
S'-1206'
p2152
aa(lp2153
S'-25'
p2154
aS'-218'
p2155
aS'-224'
p2156
aS'-413'
p2157
aS'-489'
p2158
aS'-550'
p2159
aS'-555'
p2160
aa(lp2161
S'-277'
p2162
aS'-527'
p2163
aS'-589'
p2164
aS'-616'
p2165
aS'-1347'
p2166
aS'-1393'
p2167
aS'-1883'
p2168
aS'-2641'
p2169
aS'-2683'
p2170
aS'-2915'
p2171
aS'-4034'
p2172
aS'-7438'
p2173
aS'-8626'
p2174
aS'-33166'
p2175
aS'-55553'
p2176
aa(lp2177
S'-267'
p2178
aS'-1580'
p2179
aS'-1687'
p2180
aS'-2716'
p2181
aS'-2953'
p2182
aS'-3033'
p2183
aS'-3113'
p2184
aS'-6281'
p2185
aa(lp2186
a(lp2187
S'-3984'
p2188
aa(lp2189
S'-1302'
p2190
aS'-2100'
p2191
aa(lp2192
S'-44'
p2193
aS'-485'
p2194
aa(lp2195
S'-173'
p2196
aS'-185'
p2197
aS'-420'
p2198
aa(lp2199
S'-4306'
p2200
aS'-8360'
p2201
aa(lp2202
a(lp2203
S'-40'
p2204
aS'-116'
p2205
aS'-235'
p2206
aS'-508'
p2207
aS'-527'
p2208
aS'-780'
p2209
aS'-1035'
p2210
aS'-1041'
p2211
aS'-1080'
p2212
aS'-1125'
p2213
aS'-1207'
p2214
aS'-1241'
p2215
aS'-1405'
p2216
aS'-1465'
p2217
aS'-1693'
p2218
aS'-1711'
p2219
aS'-1734'
p2220
aS'-2028'
p2221
aS'-2324'
p2222
aS'-2589'
p2223
aS'-2739'
p2224
aS'-2774'
p2225
aS'-3010'
p2226
aS'-3245'
p2227
aS'-3424'
p2228
aS'-3450'
p2229
aS'-3469'
p2230
aS'-3498'
p2231
aS'-3696'
p2232
aS'-3949'
p2233
aS'-4095'
p2234
aS'-4216'
p2235
aS'-4273'
p2236
aS'-4326'
p2237
aS'-4347'
p2238
aS'-4393'
p2239
aS'-4407'
p2240
aS'-4423'
p2241
aS'-4612'
p2242
aS'-4655'
p2243
aS'-4809'
p2244
aS'-4912'
p2245
aS'-5105'
p2246
aS'-5223'
p2247
aS'-5475'
p2248
aS'-5682'
p2249
aS'-5954'
p2250
aS'-5992'
p2251
aa(lp2252
a(lp2253
S'-24'
p2254
aS'-104'
p2255
aS'-107'
p2256
aS'-173'
p2257
aS'-186'
p2258
aS'-216'
p2259
aS'-237'
p2260
aS'-316'
p2261
aS'-329'
p2262
aS'-355'
p2263
aS'-358'
p2264
aS'-405'
p2265
aS'-413'
p2266
aS'-420'
p2267
aS'-432'
p2268
aS'-435'
p2269
aS'-442'
p2270
aS'-516'
p2271
aS'-528'
p2272
aS'-536'
p2273
aS'-542'
p2274
aS'-546'
p2275
aS'-673'
p2276
aS'-783'
p2277
aS'-849'
p2278
aS'-1073'
p2279
aS'-1077'
p2280
aS'-1088'
p2281
aS'-1373'
p2282
aS'-1391'
p2283
aS'-1405'
p2284
aS'-1411'
p2285
aS'-1461'
p2286
aS'-1495'
p2287
aS'-1694'
p2288
aS'-1748'
p2289
aS'-1777'
p2290
aS'-1826'
p2291
aS'-1831'
p2292
aS'-1882'
p2293
aS'-1917'
p2294
aS'-1920'
p2295
aS'-1973'
p2296
aS'-2027'
p2297
aS'-2089'
p2298
aS'-2090'
p2299
aS'-2092'
p2300
aS'-2122'
p2301
aS'-2133'
p2302
aS'-2169'
p2303
aS'-2264'
p2304
aS'-2265'
p2305
aS'-2296'
p2306
aS'-2316'
p2307
aS'-2335'
p2308
aS'-2375'
p2309
aS'-2380'
p2310
aS'-2387'
p2311
aS'-2393'
p2312
aS'-2450'
p2313
aS'-2471'
p2314
aS'-2478'
p2315
aS'-2506'
p2316
aS'-2615'
p2317
aS'-2642'
p2318
aS'-2643'
p2319
aS'-2668'
p2320
aS'-2694'
p2321
aS'-2701'
p2322
aS'-2717'
p2323
aS'-2734'
p2324
aS'-2772'
p2325
aS'-2796'
p2326
aS'-2797'
p2327
aS'-2804'
p2328
aS'-2828'
p2329
aS'-2902'
p2330
aS'-2986'
p2331
aS'-3041'
p2332
aS'-3048'
p2333
aS'-3054'
p2334
aS'-3254'
p2335
aS'-3269'
p2336
aS'-3331'
p2337
aS'-3418'
p2338
aS'-3439'
p2339
aS'-3453'
p2340
aS'-3489'
p2341
aS'-3564'
p2342
aS'-3593'
p2343
aS'-3702'
p2344
aS'-3703'
p2345
aS'-3717'
p2346
aS'-3809'
p2347
aS'-3824'
p2348
aS'-3827'
p2349
aS'-3877'
p2350
aS'-3923'
p2351
aS'-3979'
p2352
aS'-3988'
p2353
aS'-4006'
p2354
aS'-4015'
p2355
aS'-4091'
p2356
aS'-4109'
p2357
aS'-4130'
p2358
aS'-4155'
p2359
aS'-4215'
p2360
aS'-4248'
p2361
aS'-4371'
p2362
aS'-4483'
p2363
aS'-4487'
p2364
aS'-4509'
p2365
aS'-4526'
p2366
aS'-4533'
p2367
aS'-4578'
p2368
aS'-4619'
p2369
aS'-4654'
p2370
aS'-4663'
p2371
aS'-4676'
p2372
aS'-4686'
p2373
aS'-4700'
p2374
aS'-4909'
p2375
aS'-4915'
p2376
aS'-4980'
p2377
aS'-5213'
p2378
aa(lp2379
a(lp2380
S'-165'
p2381
aS'-316'
p2382
aS'-527'
p2383
aS'-592'
p2384
aa(lp2385
S'-2572'
p2386
aS'-2574'
p2387
aS'-2826'
p2388
aS'-3238'
p2389
aS'-3623'
p2390
aa(lp2391
S'-317'
p2392
aS'-5378'
p2393
aS'-6365'
p2394
aS'-56801'
p2395
aa(lp2396
a(lp2397
a(lp2398
a(lp2399
S'-355'
p2400
aS'-2006'
p2401
aS'-2455'
p2402
aS'-2572'
p2403
aS'-2701'
p2404
aS'-2908'
p2405
aS'-55282'
p2406
aS'-76175'
p2407
aa(lp2408
a(lp2409
S'-3'
p2410
aS'-553'
p2411
aa(lp2412
S'-585'
p2413
aS'-783'
p2414
aS'-2694'
p2415
aS'-2706'
p2416
aS'-3953'
p2417
aS'-4079'
p2418
aS'-4718'
p2419
aS'-4994'
p2420
aS'-5460'
p2421
aS'-5502'
p2422
aS'-6006'
p2423
aS'-6013'
p2424
aS'-6158'
p2425
aS'-6212'
p2426
aS'-6266'
p2427
aS'-6575'
p2428
aa(lp2429
a(lp2430
a(lp2431
S'-435'
p2432
aS'-1183'
p2433
aa(lp2434
S'-590'
p2435
aS'-1552'
p2436
aS'-1678'
p2437
aS'-2334'
p2438
aS'-2805'
p2439
aa(lp2440
a(lp2441
S'-597'
p2442
aa(lp2443
S'-5266'
p2444
aS'-5502'
p2445
aa(lp2446
S'-5378'
p2447
aS'-6365'
p2448
aa(lp2449
a(lp2450
S'-2701'
p2451
aS'-3484'
p2452
aa(lp2453
S'-36'
p2454
aS'-441'
p2455
aS'-509'
p2456
aS'-589'
p2457
aS'-590'
p2458
aS'-733'
p2459
aS'-1036'
p2460
aS'-1042'
p2461
aS'-1200'
p2462
aS'-1214'
p2463
aS'-1374'
p2464
aS'-1393'
p2465
aS'-1863'
p2466
aS'-1918'
p2467
aS'-1923'
p2468
aS'-1958'
p2469
aS'-1959'
p2470
aS'-1962'
p2471
aS'-2000'
p2472
aS'-2001'
p2473
aS'-2012'
p2474
aS'-2072'
p2475
aS'-2140'
p2476
aS'-2243'
p2477
aS'-2262'
p2478
aS'-2269'
p2479
aS'-2294'
p2480
aS'-2371'
p2481
aS'-2374'
p2482
aS'-2406'
p2483
aS'-2424'
p2484
aS'-2470'
p2485
aS'-2478'
p2486
aS'-2520'
p2487
aS'-2528'
p2488
aS'-2701'
p2489
aS'-2916'
p2490
aS'-2950'
p2491
aS'-2953'
p2492
aS'-2959'
p2493
aS'-3105'
p2494
aa(lp2495
S'-743'
p2496
aS'-2136'
p2497
aS'-7173'
p2498
aa(lp2499
a(lp2500
S'-104'
p2501
aS'-141'
p2502
aS'-736'
p2503
aa(lp2504
a(lp2505
S'-208'
p2506
aS'-588'
p2507
aa(lp2508
S'-837'
p2509
aS'-2248'
p2510
aS'-38038'
p2511
aS'-64285'
p2512
aa(lp2513
S'-44'
p2514
aS'-153'
p2515
aS'-193'
p2516
aS'-736'
p2517
aS'-1476'
p2518
aS'-8360'
p2519
aa(lp2520
a(lp2521
S'-376'
p2522
aS'-920'
p2523
aS'-2291'
p2524
aa(lp2525
S'-256'
p2526
aS'-589'
p2527
aS'-736'
p2528
aS'-1261'
p2529
aS'-1717'
p2530
aS'-1917'
p2531
aS'-1960'
p2532
aS'-2013'
p2533
aS'-2428'
p2534
aS'-2641'
p2535
aS'-2968'
p2536
aS'-3247'
p2537
aS'-3273'
p2538
aS'-3785'
p2539
aS'-4456'
p2540
aS'-4744'
p2541
aS'-4754'
p2542
aS'-5219'
p2543
aS'-6081'
p2544
aS'-6290'
p2545
aS'-6569'
p2546
aS'-6695'
p2547
aS'-6888'
p2548
aS'-8604'
p2549
aS'-27193'
p2550
aS'-27815'
p2551
aS'-37380'
p2552
aS'-45081'
p2553
aS'-45662'
p2554
aS'-48877'
p2555
aS'-53468'
p2556
aS'-53894'
p2557
aS'-54771'
p2558
aS'-55232'
p2559
aS'-55577'
p2560
aS'-57534'
p2561
aS'-59315'
p2562
aa(lp2563
S'-587'
p2564
aS'-3247'
p2565
aa(lp2566
a(lp2567
S'-45730'
p2568
aa(lp2569
S'-231'
p2570
aa(lp2571
a(lp2572
S'-35836'
p2573
aa(lp2574
S'-653'
p2575
aa(lp2576
a(lp2577
S'-3996'
p2578
aS'-4370'
p2579
aa(lp2580
a(lp2581
a(lp2582
S'-1261'
p2583
aa(lp2584
S'-1527'
p2585
aS'-1620'
p2586
aS'-2231'
p2587
aS'-2479'
p2588
aS'-2672'
p2589
aa(lp2590
S'-345'
p2591
aS'-552'
p2592
aa(lp2593
a(lp2594
S'-66'
p2595
aS'-393'
p2596
aS'-737'
p2597
aS'-788'
p2598
aS'-1432'
p2599
aS'-1544'
p2600
aS'-1562'
p2601
aS'-1681'
p2602
aS'-1707'
p2603
aS'-1760'
p2604
aS'-1882'
p2605
aS'-2054'
p2606
aS'-2273'
p2607
aS'-2381'
p2608
aS'-2383'
p2609
aS'-2412'
p2610
aS'-2701'
p2611
aS'-2862'
p2612
aS'-3113'
p2613
aS'-3441'
p2614
aS'-3452'
p2615
aS'-3821'
p2616
aS'-3919'
p2617
aS'-3997'
p2618
aS'-4224'
p2619
aS'-4343'
p2620
aS'-4638'
p2621
aS'-4974'
p2622
aS'-5463'
p2623
aS'-6564'
p2624
aS'-6880'
p2625
aS'-6996'
p2626
aS'-8387'
p2627
aS'-8666'
p2628
aS'-8985'
p2629
aS'-31221'
p2630
aS'-42738'
p2631
aS'-43919'
p2632
aS'-45852'
p2633
aS'-46335'
p2634
aS'-48877'
p2635
aS'-50794'
p2636
aa(lp2637
S'-95'
p2638
aS'-153'
p2639
aS'-170'
p2640
aS'-208'
p2641
aS'-344'
p2642
aS'-367'
p2643
aS'-377'
p2644
aS'-434'
p2645
aS'-455'
p2646
aS'-597'
p2647
aS'-1101'
p2648
aS'-1831'
p2649
aS'-1882'
p2650
aS'-1917'
p2651
aS'-1968'
p2652
aS'-2405'
p2653
aS'-2699'
p2654
aS'-2710'
p2655
aS'-2915'
p2656
aS'-3996'
p2657
aS'-4370'
p2658
aS'-5502'
p2659
aS'-6365'
p2660
aS'-6934'
p2661
aS'-8644'
p2662
aS'-8985'
p2663
aS'-34323'
p2664
aS'-49278'
p2665
aS'-53127'
p2666
aa(lp2667
S'-1339'
p2668
aa(lp2669
S'-1215'
p2670
aS'-1603'
p2671
aS'-2713'
p2672
aS'-3968'
p2673
aa(lp2674
a(lp2675
a(lp2676
S'-437'
p2677
aS'-588'
p2678
aa(lp2679
S'-19'
p2680
aS'-153'
p2681
aS'-413'
p2682
aS'-500'
p2683
aS'-546'
p2684
aS'-653'
p2685
aS'-1035'
p2686
aS'-1100'
p2687
aS'-1380'
p2688
aS'-1495'
p2689
aS'-1882'
p2690
aS'-1917'
p2691
aS'-2396'
p2692
aS'-2657'
p2693
aS'-2701'
p2694
aS'-3255'
p2695
aS'-3623'
p2696
aS'-3753'
p2697
aS'-4025'
p2698
aS'-4447'
p2699
aS'-5378'
p2700
aS'-5672'
p2701
aS'-6371'
p2702
aS'-8361'
p2703
aS'-8464'
p2704
aS'-8811'
p2705
aS'-45447'
p2706
aS'-53996'
p2707
aS'-57041'
p2708
aS'-78772'
p2709
aa(lp2710
S'-70'
p2711
aS'-172'
p2712
aS'-256'
p2713
aS'-364'
p2714
aS'-589'
p2715
aS'-653'
p2716
aS'-674'
p2717
aS'-838'
p2718
aS'-968'
p2719
aS'-1608'
p2720
aS'-1681'
p2721
aS'-1690'
p2722
aS'-1721'
p2723
aS'-1726'
p2724
aS'-1972'
p2725
aS'-2103'
p2726
aS'-2259'
p2727
aS'-2428'
p2728
aS'-2450'
p2729
aS'-2456'
p2730
aS'-2471'
p2731
aS'-2478'
p2732
aS'-2628'
p2733
aS'-2641'
p2734
aS'-2699'
p2735
aS'-2701'
p2736
aS'-2720'
p2737
aS'-2795'
p2738
aS'-2822'
p2739
aS'-2828'
p2740
aS'-2835'
p2741
aS'-3267'
p2742
aS'-3317'
p2743
aS'-3361'
p2744
aS'-3388'
p2745
aS'-3527'
p2746
aS'-3593'
p2747
aS'-3623'
p2748
aS'-3698'
p2749
aS'-3785'
p2750
aS'-3879'
p2751
aS'-4018'
p2752
aS'-4443'
p2753
aS'-4610'
p2754
aS'-4701'
p2755
aS'-4718'
p2756
aS'-4734'
p2757
aS'-4986'
p2758
aS'-5094'
p2759
aS'-5438'
p2760
aS'-5734'
p2761
aS'-5736'
p2762
aS'-6156'
p2763
aS'-6664'
p2764
aS'-6996'
p2765
aS'-7004'
p2766
aS'-7313'
p2767
aS'-7704'
p2768
aS'-7991'
p2769
aS'-8526'
p2770
aS'-8798'
p2771
aS'-8949'
p2772
aS'-26555'
p2773
aS'-26603'
p2774
aS'-32596'
p2775
aa(lp2776
a(lp2777
S'-3863'
p2778
aS'-33166'
p2779
aa(lp2780
S'-924'
p2781
aS'-2470'
p2782
aS'-2542'
p2783
aS'-5378'
p2784
aS'-6058'
p2785
aS'-6880'
p2786
aS'-8869'
p2787
aS'-56003'
p2788
aS'-56158'
p2789
aS'-60937'
p2790
aS'-66783'
p2791
aS'-68519'
p2792
aS'-69526'
p2793
aS'-71254'
p2794
aS'-71379'
p2795
aS'-72378'
p2796
aS'-73321'
p2797
aS'-73929'
p2798
aS'-80026'
p2799
aS'-81417'
p2800
aS'-95058'
p2801
aS'-95441'
p2802
aS'-101433'
p2803
aS'-102033'
p2804
aa(lp2805
S'-420'
p2806
aS'-2382'
p2807
aS'-2701'
p2808
aa(lp2809
a(lp2810
S'-65'
p2811
aa(lp2812
a(lp2813
a(lp2814
a(lp2815
S'-1380'
p2816
aS'-1517'
p2817
aS'-2502'
p2818
aa(lp2819
a(lp2820
S'-296'
p2821
aS'-413'
p2822
aS'-785'
p2823
aS'-1391'
p2824
aS'-1665'
p2825
aS'-1676'
p2826
aS'-1831'
p2827
aS'-1923'
p2828
aS'-2395'
p2829
aS'-2700'
p2830
aS'-2701'
p2831
aS'-2710'
p2832
aS'-2712'
p2833
aS'-3273'
p2834
aS'-3285'
p2835
aS'-3316'
p2836
aS'-3484'
p2837
aS'-3785'
p2838
aS'-3893'
p2839
aS'-3895'
p2840
aS'-3911'
p2841
aS'-3953'
p2842
aS'-3994'
p2843
aS'-4020'
p2844
aS'-4052'
p2845
aS'-4299'
p2846
aS'-4370'
p2847
aS'-4388'
p2848
aS'-4821'
p2849
aS'-4975'
p2850
aS'-4979'
p2851
aS'-5039'
p2852
aS'-5136'
p2853
aS'-5293'
p2854
aS'-5323'
p2855
aS'-5556'
p2856
aS'-5673'
p2857
aS'-6185'
p2858
aS'-6186'
p2859
aS'-6290'
p2860
aS'-6379'
p2861
aS'-6541'
p2862
aa(lp2863
S'-158'
p2864
aS'-3264'
p2865
aa(lp2866
S'-44'
p2867
aS'-316'
p2868
aa(lp2869
S'-86'
p2870
aS'-153'
p2871
aS'-231'
p2872
aS'-344'
p2873
aS'-593'
p2874
aS'-780'
p2875
aS'-1266'
p2876
aS'-1372'
p2877
aS'-1373'
p2878
aS'-1375'
p2879
aS'-1376'
p2880
aS'-1562'
p2881
aS'-1680'
p2882
aS'-1917'
p2883
aS'-2393'
p2884
aS'-2628'
p2885
aS'-2641'
p2886
aS'-2710'
p2887
aS'-2712'
p2888
aS'-4306'
p2889
aS'-5378'
p2890
aa(lp2891
S'-1998'
p2892
aS'-2126'
p2893
aS'-2413'
p2894
aS'-2525'
p2895
aa(lp2896
S'-60'
p2897
aS'-1590'
p2898
aS'-6874'
p2899
aa(lp2900
S'-105'
p2901
aS'-170'
p2902
aS'-198'
p2903
aS'-288'
p2904
aS'-345'
p2905
aS'-648'
p2906
aS'-1220'
p2907
aS'-1253'
p2908
aS'-1261'
p2909
aS'-1376'
p2910
aS'-1391'
p2911
aS'-1627'
p2912
aS'-1653'
p2913
aS'-1866'
p2914
aS'-2553'
p2915
aS'-2723'
p2916
aS'-2879'
p2917
aS'-2880'
p2918
aS'-2912'
p2919
aS'-2985'
p2920
aS'-3029'
p2921
aS'-3062'
p2922
aS'-3444'
p2923
aS'-3503'
p2924
aS'-3623'
p2925
aS'-3639'
p2926
aS'-3698'
p2927
aS'-3699'
p2928
aS'-3726'
p2929
aS'-3755'
p2930
aS'-3827'
p2931
aS'-3972'
p2932
aS'-4232'
p2933
aS'-4299'
p2934
aS'-4370'
p2935
aS'-4846'
p2936
aS'-4874'
p2937
aS'-4963'
p2938
aS'-5155'
p2939
aS'-5400'
p2940
aS'-5423'
p2941
aS'-5522'
p2942
aS'-6283'
p2943
aS'-6378'
p2944
aS'-6548'
p2945
aS'-6617'
p2946
aS'-6709'
p2947
aS'-6882'
p2948
aa(lp2949
S'-785'
p2950
aS'-1642'
p2951
aS'-2629'
p2952
aS'-2712'
p2953
aS'-2722'
p2954
aa(lp2955
S'-231'
p2956
aS'-344'
p2957
aS'-434'
p2958
aa(lp2959
a(lp2960
S'-2163'
p2961
aa(lp2962
S'-457'
p2963
aS'-2403'
p2964
aS'-5049'
p2965
aS'-6016'
p2966
aa(lp2967
S'-1206'
p2968
aS'-1285'
p2969
aS'-3608'
p2970
aa(lp2971
a(lp2972
a(lp2973
a(lp2974
a(lp2975
a(lp2976
S'-788'
p2977
aS'-1200'
p2978
aS'-1300'
p2979
aa(lp2980
a(lp2981
a(lp2982
S'-1472'
p2983
aS'-2378'
p2984
aa(lp2985
S'-203'
p2986
aS'-585'
p2987
aa(lp2988
S'-780'
p2989
aa(lp2990
a(lp2991
S'-58559'
p2992
aS'-76093'
p2993
aS'-78499'
p2994
aS'-88405'
p2995
aS'-91104'
p2996
aS'-105844'
p2997
aS'-106696'
p2998
aa(lp2999
S'-6539'
p3000
aS'-41997'
p3001
aa(lp3002
S'-47'
p3003
aS'-30793'
p3004
aS'-41566'
p3005
aa(lp3006
S'-344'
p3007
aa(lp3008
S'-65'
p3009
aS'-542'
p3010
aS'-546'
p3011
aS'-737'
p3012
aS'-785'
p3013
aS'-2054'
p3014
aS'-3717'
p3015
aS'-4621'
p3016
aS'-8387'
p3017
aa(lp3018
a(lp3019
a(lp3020
S'-19'
p3021
aa(lp3022
S'-168'
p3023
aS'-1721'
p3024
aS'-2699'
p3025
aa(lp3026
a(lp3027
a(lp3028
S'-9'
p3029
aS'-153'
p3030
aS'-160'
p3031
aS'-165'
p3032
aS'-172'
p3033
aS'-204'
p3034
aS'-303'
p3035
aS'-490'
p3036
aS'-520'
p3037
aS'-548'
p3038
aS'-747'
p3039
aS'-832'
p3040
aS'-849'
p3041
aS'-886'
p3042
aS'-996'
p3043
aS'-1047'
p3044
aS'-1320'
p3045
aS'-1381'
p3046
aS'-1416'
p3047
aS'-1461'
p3048
aS'-1479'
p3049
aS'-1556'
p3050
aS'-1562'
p3051
aS'-1605'
p3052
aS'-1686'
p3053
aS'-1687'
p3054
aS'-1690'
p3055
aS'-1801'
p3056
aS'-1882'
p3057
aS'-1894'
p3058
aS'-1907'
p3059
aS'-1917'
p3060
aS'-2126'
p3061
aS'-2153'
p3062
aS'-2265'
p3063
aS'-2269'
p3064
aS'-2334'
p3065
aS'-2335'
p3066
aS'-2387'
p3067
aS'-2421'
p3068
aS'-2471'
p3069
aS'-2473'
p3070
aS'-2521'
p3071
aS'-2522'
p3072
aS'-2530'
p3073
aS'-2536'
p3074
aS'-2643'
p3075
aS'-2687'
p3076
aS'-2752'
p3077
aS'-2763'
p3078
aS'-2794'
p3079
aS'-2796'
p3080
aS'-2906'
p3081
aS'-3258'
p3082
aS'-3431'
p3083
aS'-3432'
p3084
aS'-3689'
p3085
aS'-3690'
p3086
aS'-4239'
p3087
aS'-4848'
p3088
aS'-5400'
p3089
aS'-5956'
p3090
aS'-6007'
p3091
aS'-6934'
p3092
aS'-7193'
p3093
aS'-7725'
p3094
aS'-8831'
p3095
aS'-8977'
p3096
aS'-33679'
p3097
aS'-34150'
p3098
aS'-37382'
p3099
aa(lp3100
S'-780'
p3101
aa(lp3102
S'-296'
p3103
aS'-344'
p3104
aS'-420'
p3105
aS'-442'
p3106
aS'-780'
p3107
aS'-786'
p3108
aS'-1089'
p3109
aS'-1101'
p3110
aS'-1206'
p3111
aS'-1263'
p3112
aS'-1380'
p3113
aS'-2004'
p3114
aS'-2706'
p3115
aS'-2944'
p3116
aS'-3101'
p3117
aS'-3253'
p3118
aS'-3498'
p3119
aS'-4085'
p3120
aa(lp3121
S'-327'
p3122
aS'-519'
p3123
aS'-719'
p3124
aS'-849'
p3125
aS'-1247'
p3126
aS'-1917'
p3127
aS'-1965'
p3128
aS'-2023'
p3129
aS'-2807'
p3130
aS'-2826'
p3131
aS'-3108'
p3132
aS'-3593'
p3133
aS'-4643'
p3134
aS'-7004'
p3135
aS'-8861'
p3136
aa(lp3137
S'-747'
p3138
aS'-849'
p3139
aa(lp3140
S'-256'
p3141
aS'-296'
p3142
aS'-1920'
p3143
aS'-2770'
p3144
aS'-53972'
p3145
aa(lp3146
S'-708'
p3147
aS'-1101'
p3148
aS'-1225'
p3149
aS'-1917'
p3150
aa(lp3151
S'-4'
p3152
aa(lp3153
a(lp3154
a(lp3155
S'-3826'
p3156
aa(lp3157
S'-546'
p3158
aS'-1499'
p3159
aa(lp3160
S'-1411'
p3161
aa(lp3162
S'-224'
p3163
aS'-448'
p3164
aS'-498'
p3165
aS'-1120'
p3166
aS'-2167'
p3167
aa(lp3168
a(lp3169
S'-173'
p3170
aS'-305'
p3171
aS'-364'
p3172
aS'-410'
p3173
aS'-597'
p3174
aa(lp3175
S'-39414'
p3176
aS'-69757'
p3177
aa(lp3178
S'-1327'
p3179
aS'-1503'
p3180
aS'-3273'
p3181
aS'-4030'
p3182
aS'-5040'
p3183
aS'-6197'
p3184
aS'-6541'
p3185
aS'-6812'
p3186
aS'-7228'
p3187
aS'-27905'
p3188
aS'-34150'
p3189
aS'-36401'
p3190
aS'-45499'
p3191
aS'-46530'
p3192
aS'-46965'
p3193
aS'-53125'
p3194
aS'-56156'
p3195
aS'-60684'
p3196
aS'-61401'
p3197
aS'-61697'
p3198
aS'-69122'
p3199
aS'-70336'
p3200
aS'-73089'
p3201
aS'-79617'
p3202
aS'-79879'
p3203
aS'-85796'
p3204
aS'-87430'
p3205
aS'-103596'
p3206
aa(lp3207
S'-5530'
p3208
aa(lp3209
a(lp3210
a(lp3211
a(lp3212
S'-1639'
p3213
aS'-2421'
p3214
aS'-2628'
p3215
aS'-3354'
p3216
aS'-3753'
p3217
aS'-7154'
p3218
aa(lp3219
S'-1136'
p3220
aS'-2396'
p3221
aa(lp3222
S'-19'
p3223
aS'-344'
p3224
aa(lp3225
a(lp3226
a(lp3227
S'-1747'
p3228
aS'-2552'
p3229
aS'-2747'
p3230
aS'-3617'
p3231
aS'-3785'
p3232
aS'-3841'
p3233
aS'-6287'
p3234
aa(lp3235
a(lp3236
S'-24'
p3237
aS'-720'
p3238
aS'-2616'
p3239
aa(lp3240
S'-2158'
p3241
aS'-2335'
p3242
aa(lp3243
S'-2959'
p3244
aa(lp3245
S'-2422'
p3246
aS'-3704'
p3247
aa(lp3248
a(lp3249
S'-172'
p3250
aS'-427'
p3251
aa(lp3252
S'-208'
p3253
aS'-2369'
p3254
aS'-3257'
p3255
aa(lp3256
S'-1358'
p3257
aa(lp3258
S'-1965'
p3259
aS'-2067'
p3260
aS'-2150'
p3261
aS'-2483'
p3262
aS'-3036'
p3263
aa(lp3264
S'-2393'
p3265
aS'-2731'
p3266
aa(lp3267
S'-337'
p3268
aa(lp3269
S'-19'
p3270
aS'-39'
p3271
aS'-160'
p3272
aS'-173'
p3273
aS'-208'
p3274
aS'-231'
p3275
aS'-253'
p3276
aS'-420'
p3277
aS'-648'
p3278
aa(lp3279
S'-158'
p3280
aS'-2706'
p3281
aS'-53996'
p3282
aa(lp3283
a(lp3284
S'-2398'
p3285
aS'-2701'
p3286
aS'-2723'
p3287
aS'-3564'
p3288
aS'-3617'
p3289
aS'-3916'
p3290
aS'-3977'
p3291
aS'-3986'
p3292
aa(lp3293
a(lp3294
a(lp3295
a(lp3296
S'-1644'
p3297
aa(lp3298
S'-2701'
p3299
aS'-4973'
p3300
aa(lp3301
a(lp3302
S'-60069'
p3303
aa(lp3304
S'-165'
p3305
aS'-1370'
p3306
aS'-3578'
p3307
aa(lp3308
S'-546'
p3309
aS'-1760'
p3310
aS'-2805'
p3311
aS'-2950'
p3312
aa(lp3313
S'-160'
p3314
aS'-168'
p3315
aS'-193'
p3316
aS'-224'
p3317
aa(lp3318
S'-256'
p3319
aS'-1831'
p3320
aS'-1907'
p3321
aS'-2421'
p3322
aS'-2616'
p3323
aS'-3108'
p3324
aS'-4621'
p3325
aS'-7701'
p3326
aS'-26686'
p3327
aS'-59429'
p3328
aS'-59784'
p3329
aa(lp3330
a(lp3331
S'-4975'
p3332
aa(lp3333
a(lp3334
a(lp3335
a(lp3336
S'-719'
p3337
aS'-4027'
p3338
aS'-6874'
p3339
aa(lp3340
S'-1721'
p3341
aa(lp3342
a(lp3343
a(lp3344
S'-160'
p3345
aS'-196'
p3346
aS'-316'
p3347
aS'-337'
p3348
aS'-371'
p3349
aS'-585'
p3350
aa(lp3351
a(lp3352
S'-3593'
p3353
aa(lp3354
S'-2076'
p3355
aS'-2617'
p3356
aS'-2683'
p3357
aS'-2700'
p3358
aS'-2701'
p3359
aS'-3052'
p3360
aa(lp3361
S'-1591'
p3362
aa(lp3363
S'-585'
p3364
aa(lp3365
S'-1005'
p3366
aS'-1476'
p3367
aS'-1590'
p3368
aS'-2042'
p3369
aS'-3977'
p3370
aS'-4015'
p3371
aS'-4683'
p3372
aa(lp3373
a(lp3374
S'-196'
p3375
aS'-253'
p3376
aS'-648'
p3377
aS'-673'
p3378
aS'-882'
p3379
aS'-968'
p3380
aS'-1027'
p3381
aS'-1275'
p3382
aS'-1339'
p3383
aS'-1501'
p3384
aS'-1594'
p3385
aS'-1732'
p3386
aS'-1924'
p3387
aS'-2013'
p3388
aS'-2105'
p3389
aS'-2451'
p3390
aS'-2616'
p3391
aS'-2670'
p3392
aS'-2713'
p3393
aS'-2722'
p3394
aS'-2780'
p3395
aS'-2883'
p3396
aS'-3163'
p3397
aS'-3712'
p3398
aS'-4090'
p3399
aS'-4437'
p3400
aS'-4639'
p3401
aS'-5265'
p3402
aS'-5383'
p3403
aS'-5679'
p3404
aS'-6006'
p3405
aS'-6166'
p3406
aS'-6731'
p3407
aa(lp3408
S'-1206'
p3409
aa(lp3410
S'-72998'
p3411
aa(lp3412
a(lp3413
a(lp3414
a(lp3415
a(lp3416
S'-2688'
p3417
aa(lp3418
a(lp3419
S'-3825'
p3420
aa(lp3421
S'-552'
p3422
aa(lp3423
S'-2720'
p3424
aS'-2806'
p3425
aS'-3593'
p3426
aS'-3956'
p3427
aS'-3999'
p3428
aa(lp3429
S'-158'
p3430
aS'-181'
p3431
aS'-208'
p3432
aS'-1092'
p3433
aS'-1101'
p3434
aS'-1562'
p3435
aS'-1754'
p3436
aS'-2706'
p3437
aS'-2719'
p3438
aS'-3510'
p3439
aS'-3593'
p3440
aS'-3623'
p3441
aS'-3973'
p3442
aS'-3979'
p3443
aS'-5349'
p3444
aS'-5378'
p3445
aS'-6794'
p3446
aS'-8914'
p3447
aS'-30825'
p3448
aS'-31685'
p3449
aS'-42723'
p3450
aS'-50798'
p3451
aS'-54272'
p3452
aS'-54503'
p3453
aS'-56367'
p3454
aS'-59900'
p3455
aS'-60074'
p3456
aS'-62733'
p3457
aS'-70286'
p3458
aS'-76077'
p3459
aS'-85788'
p3460
aS'-88744'
p3461
aa(lp3462
S'-2410'
p3463
aS'-2411'
p3464
aS'-2710'
p3465
aS'-3751'
p3466
aa(lp3467
S'-2124'
p3468
aa(lp3469
S'-65'
p3470
aS'-174'
p3471
aS'-255'
p3472
aS'-327'
p3473
aS'-345'
p3474
aS'-435'
p3475
aS'-839'
p3476
aS'-849'
p3477
aa(lp3478
S'-1671'
p3479
aa(lp3480
S'-203'
p3481
aS'-585'
p3482
aa(lp3483
S'-1089'
p3484
aa(lp3485
S'-1381'
p3486
aa(lp3487
a(lp3488
a(lp3489
a(lp3490
a(lp3491
S'-673'
p3492
aS'-1431'
p3493
aa(lp3494
S'-344'
p3495
aS'-1367'
p3496
aa(lp3497
a(lp3498
S'-6365'
p3499
aS'-6874'
p3500
aS'-7438'
p3501
aS'-59369'
p3502
aa(lp3503
S'-112'
p3504
aS'-151'
p3505
aS'-168'
p3506
aS'-172'
p3507
aS'-208'
p3508
aS'-272'
p3509
aS'-344'
p3510
aS'-367'
p3511
aS'-405'
p3512
aS'-410'
p3513
aS'-466'
p3514
aS'-520'
p3515
aS'-653'
p3516
aS'-724'
p3517
aa(lp3518
S'-2428'
p3519
aS'-4054'
p3520
aa(lp3521
S'-4255'
p3522
aS'-6325'
p3523
aa(lp3524
S'-70'
p3525
aS'-172'
p3526
aS'-405'
p3527
aS'-519'
p3528
aS'-737'
p3529
aS'-880'
p3530
aS'-2322'
p3531
aS'-2540'
p3532
aS'-2614'
p3533
aS'-2643'
p3534
aa(lp3535
S'-762'
p3536
aS'-2712'
p3537
aa(lp3538
S'-480'
p3539
aS'-1097'
p3540
aS'-1101'
p3541
aS'-2716'
p3542
aS'-2858'
p3543
aS'-5010'
p3544
aa(lp3545
S'-344'
p3546
aa(lp3547
a(lp3548
S'-585'
p3549
aS'-3578'
p3550
aa(lp3551
S'-44'
p3552
aS'-160'
p3553
aS'-172'
p3554
aS'-180'
p3555
aS'-193'
p3556
aS'-256'
p3557
aS'-327'
p3558
aS'-355'
p3559
aS'-374'
p3560
aS'-419'
p3561
aS'-435'
p3562
aS'-473'
p3563
aS'-485'
p3564
aS'-519'
p3565
aS'-548'
p3566
aS'-585'
p3567
aS'-673'
p3568
aS'-688'
p3569
aS'-707'
p3570
aS'-880'
p3571
aS'-1059'
p3572
aS'-1088'
p3573
aS'-1100'
p3574
aS'-1379'
p3575
aS'-1408'
p3576
aS'-1445'
p3577
aS'-1499'
p3578
aS'-1556'
p3579
aS'-1639'
p3580
aS'-1676'
p3581
aS'-2053'
p3582
aS'-2124'
p3583
aS'-2322'
p3584
aS'-2335'
p3585
aS'-2395'
p3586
aS'-2427'
p3587
aS'-2529'
p3588
aS'-2808'
p3589
aS'-2816'
p3590
aS'-2817'
p3591
aS'-2818'
p3592
aS'-2840'
p3593
aS'-3052'
p3594
aS'-3593'
p3595
aS'-3767'
p3596
aS'-3768'
p3597
aS'-3809'
p3598
aS'-4015'
p3599
aS'-4207'
p3600
aS'-4299'
p3601
aS'-4623'
p3602
aS'-4643'
p3603
aS'-4727'
p3604
aS'-4848'
p3605
aS'-5420'
p3606
aS'-6333'
p3607
aS'-6365'
p3608
aS'-6565'
p3609
aS'-6934'
p3610
aS'-7458'
p3611
aa(lp3612
S'-22'
p3613
aS'-47'
p3614
aa(lp3615
S'-95'
p3616
aS'-160'
p3617
aS'-185'
p3618
aS'-203'
p3619
aS'-317'
p3620
aS'-344'
p3621
aS'-379'
p3622
aS'-380'
p3623
aS'-432'
p3624
aS'-454'
p3625
aS'-788'
p3626
aS'-1393'
p3627
aS'-1676'
p3628
aS'-1721'
p3629
aS'-1917'
p3630
aS'-2012'
p3631
aS'-2054'
p3632
aS'-2797'
p3633
aS'-3755'
p3634
aS'-3994'
p3635
aS'-4643'
p3636
aS'-5502'
p3637
aS'-59615'
p3638
aS'-65740'
p3639
aa(lp3640
a(lp3641
S'-95'
p3642
aa(lp3643
S'-65'
p3644
aS'-788'
p3645
aa(lp3646
a(lp3647
S'-208'
p3648
aS'-231'
p3649
aS'-344'
p3650
aS'-5415'
p3651
aS'-6464'
p3652
aS'-45208'
p3653
aS'-68554'
p3654
aS'-84954'
p3655
aa(lp3656
S'-19'
p3657
aS'-81'
p3658
aS'-102'
p3659
aS'-175'
p3660
aS'-240'
p3661
aS'-305'
p3662
aS'-345'
p3663
aS'-353'
p3664
aS'-419'
p3665
aS'-953'
p3666
aS'-1073'
p3667
aS'-1483'
p3668
aS'-1556'
p3669
aS'-1590'
p3670
aS'-1676'
p3671
aS'-1835'
p3672
aS'-1855'
p3673
aS'-1862'
p3674
aS'-2126'
p3675
aS'-2154'
p3676
aS'-2164'
p3677
aS'-2337'
p3678
aS'-2393'
p3679
aS'-2490'
p3680
aS'-2505'
p3681
aS'-2701'
p3682
aS'-2710'
p3683
aS'-2867'
p3684
aS'-2884'
p3685
aS'-2979'
p3686
aS'-2985'
p3687
aS'-2986'
p3688
aS'-3070'
p3689
aS'-3115'
p3690
aS'-3392'
p3691
aS'-3593'
p3692
aS'-3697'
p3693
aS'-3719'
p3694
aS'-4485'
p3695
aS'-4941'
p3696
aS'-5401'
p3697
aS'-5419'
p3698
aS'-5796'
p3699
aS'-6159'
p3700
aS'-6219'
p3701
aS'-6263'
p3702
aS'-6281'
p3703
aS'-6325'
p3704
aS'-6634'
p3705
aS'-6651'
p3706
aS'-6800'
p3707
aS'-7385'
p3708
aS'-7521'
p3709
aS'-7879'
p3710
aS'-8585'
p3711
aS'-8790'
p3712
aS'-8917'
p3713
aS'-26258'
p3714
aS'-34530'
p3715
aS'-39427'
p3716
aS'-42738'
p3717
aS'-48142'
p3718
aS'-53127'
p3719
aa(lp3720
S'-36519'
p3721
aS'-78772'
p3722
aS'-91104'
p3723
aS'-128488'
p3724
aa(lp3725
a(lp3726
S'-64'
p3727
aa(lp3728
S'-1569'
p3729
aa(lp3730
S'-485'
p3731
aS'-2505'
p3732
aa(lp3733
S'-784'
p3734
aS'-7373'
p3735
aa(lp3736
a(lp3737
a(lp3738
S'-123'
p3739
aa(lp3740
S'-153'
p3741
aS'-344'
p3742
aa(lp3743
S'-145'
p3744
aS'-342'
p3745
aS'-355'
p3746
aS'-367'
p3747
aS'-500'
p3748
aS'-785'
p3749
aS'-1275'
p3750
aS'-1307'
p3751
aS'-1339'
p3752
aS'-2028'
p3753
aS'-3418'
p3754
aa(lp3755
a(lp3756
a(lp3757
S'-62'
p3758
aa(lp3759
S'-153'
p3760
aS'-172'
p3761
aS'-173'
p3762
aS'-393'
p3763
aS'-1591'
p3764
aS'-1760'
p3765
aS'-2406'
p3766
aS'-3268'
p3767
aS'-4310'
p3768
aS'-4636'
p3769
aS'-5445'
p3770
aS'-5956'
p3771
aS'-7254'
p3772
aS'-8666'
p3773
aa(lp3774
a(lp3775
a(lp3776
S'-551'
p3777
aa(lp3778
S'-593'
p3779
aS'-4720'
p3780
aS'-4973'
p3781
aS'-45662'
p3782
aa(lp3783
a(lp3784
S'-6212'
p3785
aa(lp3786
S'-737'
p3787
aS'-1323'
p3788
aS'-2163'
p3789
aS'-2315'
p3790
aS'-3166'
p3791
aS'-3623'
p3792
aS'-3751'
p3793
aa(lp3794
S'-1347'
p3795
aS'-2616'
p3796
aS'-6947'
p3797
aa(lp3798
a(lp3799
S'-419'
p3800
aS'-434'
p3801
aS'-2650'
p3802
aS'-2652'
p3803
aS'-3081'
p3804
aa(lp3805
S'-62'
p3806
aa(lp3807
a(lp3808
S'-412'
p3809
aS'-628'
p3810
aS'-733'
p3811
aS'-762'
p3812
aS'-1274'
p3813
aS'-1295'
p3814
aS'-1303'
p3815
aS'-1346'
p3816
aa(lp3817
a(lp3818
S'-461'
p3819
aS'-1213'
p3820
aS'-1266'
p3821
aS'-1517'
p3822
aS'-1876'
p3823
aS'-1918'
p3824
aS'-2022'
p3825
aS'-2391'
p3826
aa(lp3827
S'-7147'
p3828
aS'-49272'
p3829
aS'-54286'
p3830
aa(lp3831
S'-66'
p3832
aS'-71'
p3833
aS'-107'
p3834
aS'-166'
p3835
aS'-172'
p3836
aS'-191'
p3837
aS'-209'
p3838
aS'-220'
p3839
aS'-312'
p3840
aS'-313'
p3841
aS'-317'
p3842
aS'-330'
p3843
aS'-333'
p3844
aS'-360'
p3845
aS'-405'
p3846
aS'-432'
p3847
aS'-436'
p3848
aS'-438'
p3849
aS'-479'
p3850
aS'-485'
p3851
aS'-499'
p3852
aS'-511'
p3853
aS'-514'
p3854
aS'-519'
p3855
aS'-546'
p3856
aS'-558'
p3857
aS'-606'
p3858
aS'-616'
p3859
aS'-674'
p3860
aS'-688'
p3861
aS'-692'
p3862
aS'-802'
p3863
aS'-809'
p3864
aS'-1022'
p3865
aS'-1091'
p3866
aS'-1126'
p3867
aS'-1225'
p3868
aS'-1307'
p3869
aS'-1359'
p3870
aS'-1380'
p3871
aS'-1381'
p3872
aS'-1382'
p3873
aS'-1409'
p3874
aS'-1456'
p3875
aS'-1495'
p3876
aS'-1499'
p3877
aS'-1515'
p3878
aS'-1529'
p3879
aS'-1556'
p3880
aS'-1599'
p3881
aS'-1655'
p3882
aS'-1667'
p3883
aS'-1681'
p3884
aS'-1702'
p3885
aS'-1750'
p3886
aS'-1756'
p3887
aS'-1760'
p3888
aS'-1878'
p3889
aS'-1924'
p3890
aS'-1969'
p3891
aS'-1972'
p3892
aS'-1992'
p3893
aS'-2001'
p3894
aS'-2052'
p3895
aS'-2092'
p3896
aS'-2119'
p3897
aS'-2153'
p3898
aS'-2162'
p3899
aS'-2170'
p3900
aS'-2265'
p3901
aS'-2266'
p3902
aS'-2296'
p3903
aS'-2310'
p3904
aS'-2325'
p3905
aS'-2372'
p3906
aS'-2373'
p3907
aS'-2378'
p3908
aS'-2380'
p3909
aS'-2381'
p3910
aS'-2382'
p3911
aS'-2383'
p3912
aS'-2385'
p3913
aS'-2405'
p3914
aS'-2422'
p3915
aS'-2471'
p3916
aS'-2498'
p3917
aS'-2500'
p3918
aS'-2504'
p3919
aS'-2514'
p3920
aS'-2516'
p3921
aS'-2548'
p3922
aS'-2549'
p3923
aS'-2559'
p3924
aS'-2597'
p3925
aS'-2642'
p3926
aS'-2643'
p3927
aS'-2649'
p3928
aS'-2720'
p3929
aS'-2796'
p3930
aS'-2807'
p3931
aS'-2829'
p3932
aS'-2965'
p3933
aS'-2995'
p3934
aS'-3024'
p3935
aS'-3054'
p3936
aS'-3067'
p3937
aS'-3120'
p3938
aS'-3257'
p3939
aS'-3268'
p3940
aS'-3387'
p3941
aS'-3391'
p3942
aS'-3393'
p3943
aS'-3399'
p3944
aS'-3439'
p3945
aS'-3440'
p3946
aS'-3477'
p3947
aS'-3500'
p3948
aS'-3572'
p3949
aS'-3574'
p3950
aS'-3663'
p3951
aS'-3692'
p3952
aS'-3695'
p3953
aS'-3705'
p3954
aS'-3712'
p3955
aS'-3716'
p3956
aS'-3764'
p3957
aS'-3799'
p3958
aS'-3802'
p3959
aS'-3844'
p3960
aS'-3877'
p3961
aS'-3919'
p3962
aS'-3938'
p3963
aS'-3941'
p3964
aS'-4104'
p3965
aS'-4125'
p3966
aS'-4127'
p3967
aS'-4130'
p3968
aS'-4132'
p3969
aS'-4138'
p3970
aS'-4221'
p3971
aa(lp3972
a(lp3973
S'-32'
p3974
aa(lp3975
S'-267'
p3976
aS'-750'
p3977
aS'-924'
p3978
aS'-1591'
p3979
aS'-1968'
p3980
aS'-2804'
p3981
aS'-2944'
p3982
aS'-2948'
p3983
aS'-2949'
p3984
aS'-3175'
p3985
aS'-56367'
p3986
aS'-66934'
p3987
aa(lp3988
S'-377'
p3989
aS'-1206'
p3990
aS'-1251'
p3991
aS'-1663'
p3992
aS'-3448'
p3993
aS'-3868'
p3994
aS'-3949'
p3995
aS'-4878'
p3996
aS'-92535'
p3997
aS'-99114'
p3998
aa(lp3999
S'-1215'
p4000
aS'-2657'
p4001
aa(lp4002
S'-153'
p4003
aS'-344'
p4004
aS'-377'
p4005
aS'-432'
p4006
aS'-434'
p4007
aS'-590'
p4008
aa(lp4009
S'-1831'
p4010
aS'-3593'
p4011
aa(lp4012
S'-2781'
p4013
aa(lp4014
a(lp4015
S'-56174'
p4016
aa(lp4017
S'-1632'
p4018
aS'-1646'
p4019
aa(lp4020
S'-4022'
p4021
aS'-4973'
p4022
aa(lp4023
S'-597'
p4024
aS'-1376'
p4025
aS'-1760'
p4026
aa(lp4027
S'-32'
p4028
aS'-719'
p4029
aS'-830'
p4030
aS'-2058'
p4031
aS'-2746'
p4032
aS'-2953'
p4033
aS'-3450'
p4034
aS'-4571'
p4035
aS'-6554'
p4036
aS'-8376'
p4037
aS'-68135'
p4038
aa(lp4039
S'-96815'
p4040
aa(lp4041
a(lp4042
a(lp4043
S'-16'
p4044
aS'-432'
p4045
aS'-1966'
p4046
aS'-2461'
p4047
aS'-2539'
p4048
aS'-6785'
p4049
aS'-6810'
p4050
aS'-7158'
p4051
aa(lp4052
S'-379'
p4053
aS'-519'
p4054
aS'-1717'
p4055
aS'-39183'
p4056
aa(lp4057
S'-196'
p4058
aS'-546'
p4059
aS'-5903'
p4060
aS'-6548'
p4061
aS'-45447'
p4062
aS'-47200'
p4063
aS'-64231'
p4064
aS'-66335'
p4065
aa(lp4066
a(lp4067
a(lp4068
S'-434'
p4069
aa(lp4070
a(lp4071
S'-231'
p4072
aS'-1265'
p4073
aS'-2918'
p4074
aS'-4643'
p4075
aa(lp4076
S'-172'
p4077
aS'-508'
p4078
aS'-2054'
p4079
aS'-2064'
p4080
aS'-3418'
p4081
aS'-5669'
p4082
aS'-39183'
p4083
aa(lp4084
S'-4214'
p4085
aS'-6539'
p4086
aa(lp4087
S'-3246'
p4088
aa(lp4089
S'-74'
p4090
aS'-1683'
p4091
aS'-2367'
p4092
aS'-2867'
p4093
aa(lp4094
a(lp4095
S'-88'
p4096
aS'-405'
p4097
aS'-519'
p4098
aS'-785'
p4099
aS'-2541'
p4100
aS'-2605'
p4101
aS'-2710'
p4102
aS'-2858'
p4103
aS'-2881'
p4104
aa(lp4105
a(lp4106
a(lp4107
S'-541'
p4108
aS'-1206'
p4109
aS'-1240'
p4110
aS'-1339'
p4111
aS'-3033'
p4112
aS'-3697'
p4113
aS'-4816'
p4114
aS'-6874'
p4115
aS'-7438'
p4116
aS'-60756'
p4117
aa(lp4118
S'-589'
p4119
aS'-3646'
p4120
aS'-3955'
p4121
aS'-3979'
p4122
aS'-4878'
p4123
aS'-83349'
p4124
aS'-87485'
p4125
aS'-87529'
p4126
aS'-90890'
p4127
aS'-94677'
p4128
aS'-96110'
p4129
aS'-97836'
p4130
aS'-99106'
p4131
aS'-100163'
p4132
aS'-100390'
p4133
aS'-101283'
p4134
aS'-101285'
p4135
aS'-101997'
p4136
aS'-102033'
p4137
aS'-104925'
p4138
aS'-106062'
p4139
aS'-107348'
p4140
aS'-109673'
p4141
aS'-112497'
p4142
aS'-116799'
p4143
aS'-116977'
p4144
aS'-117590'
p4145
aS'-118898'
p4146
aS'-119141'
p4147
aa(lp4148
a(lp4149
a(lp4150
S'-953'
p4151
aS'-2657'
p4152
aa(lp4153
S'-2712'
p4154
aS'-6874'
p4155
aS'-7438'
p4156
aa(lp4157
a(lp4158
a(lp4159
S'-4015'
p4160
aa(lp4161
S'-126'
p4162
aS'-818'
p4163
aS'-1605'
p4164
aS'-2713'
p4165
aa(lp4166
S'-653'
p4167
aS'-1183'
p4168
aS'-5881'
p4169
aS'-6157'
p4170
aa(lp4171
S'-32'
p4172
aS'-1213'
p4173
aa(lp4174
a(lp4175
a(lp4176
a(lp4177
a(lp4178
S'-31'
p4179
aS'-105'
p4180
aS'-256'
p4181
aS'-261'
p4182
aS'-408'
p4183
aS'-1047'
p4184
aS'-1251'
p4185
aS'-1503'
p4186
aS'-1541'
p4187
aS'-1747'
p4188
aS'-2005'
p4189
aS'-2023'
p4190
aS'-2407'
p4191
aS'-2505'
p4192
aS'-3991'
p4193
aS'-5151'
p4194
aS'-5810'
p4195
aS'-7444'
p4196
aS'-8169'
p4197
aS'-54190'
p4198
aS'-58293'
p4199
aa(lp4200
S'-1093'
p4201
aS'-2699'
p4202
aa(lp4203
S'-193'
p4204
aa(lp4205
a(lp4206
S'-41'
p4207
aS'-761'
p4208
aa(lp4209
a(lp4210
a(lp4211
S'-70286'
p4212
aS'-73017'
p4213
aS'-88405'
p4214
aa(lp4215
S'-4036'
p4216
aS'-45728'
p4217
aS'-48043'
p4218
aS'-48326'
p4219
aS'-49280'
p4220
aS'-50794'
p4221
aS'-54775'
p4222
aS'-55232'
p4223
aS'-55995'
p4224
aa(lp4225
S'-1623'
p4226
aS'-1911'
p4227
aS'-2188'
p4228
aS'-2485'
p4229
aS'-2555'
p4230
aS'-2568'
p4231
aS'-2581'
p4232
aS'-2629'
p4233
aS'-2694'
p4234
aS'-2710'
p4235
aS'-2719'
p4236
aS'-2720'
p4237
aS'-2763'
p4238
aS'-2805'
p4239
aS'-2826'
p4240
aS'-2827'
p4241
aS'-2882'
p4242
aS'-2888'
p4243
aS'-3004'
p4244
aS'-3101'
p4245
aS'-3219'
p4246
aS'-3409'
p4247
aS'-3564'
p4248
aS'-3754'
p4249
aS'-3857'
p4250
aS'-3908'
p4251
aS'-3988'
p4252
aS'-4119'
p4253
aS'-5309'
p4254
aS'-5337'
p4255
aS'-5369'
p4256
aS'-5397'
p4257
aa(lp4258
a(lp4259
S'-12'
p4260
aS'-70'
p4261
aS'-132'
p4262
aS'-140'
p4263
aS'-173'
p4264
aS'-193'
p4265
aS'-208'
p4266
aS'-217'
p4267
aS'-268'
p4268
aS'-288'
p4269
aS'-291'
p4270
aS'-319'
p4271
aS'-328'
p4272
aS'-353'
p4273
aS'-355'
p4274
aS'-358'
p4275
aS'-396'
p4276
aS'-419'
p4277
aS'-427'
p4278
aS'-469'
p4279
aS'-520'
p4280
aS'-639'
p4281
aS'-691'
p4282
aS'-694'
p4283
aS'-719'
p4284
aS'-784'
p4285
aS'-839'
p4286
aS'-842'
p4287
aS'-1173'
p4288
aS'-1232'
p4289
aS'-1243'
p4290
aS'-1273'
p4291
aS'-1356'
p4292
aS'-1381'
p4293
aS'-1414'
p4294
aS'-1483'
p4295
aS'-1554'
p4296
aS'-1556'
p4297
aS'-1588'
p4298
aS'-1591'
p4299
aS'-1598'
p4300
aS'-1611'
p4301
aS'-1648'
p4302
aS'-1717'
p4303
aS'-1760'
p4304
aS'-1762'
p4305
aS'-1779'
p4306
aS'-1855'
p4307
aS'-1859'
p4308
aS'-1884'
p4309
aS'-1965'
p4310
aS'-1973'
p4311
aS'-1981'
p4312
aS'-1998'
p4313
aS'-2021'
p4314
aS'-2030'
p4315
aS'-2034'
p4316
aS'-2053'
p4317
aS'-2088'
p4318
aS'-2113'
p4319
aS'-2121'
p4320
aS'-2122'
p4321
aS'-2153'
p4322
aS'-2167'
p4323
aS'-2179'
p4324
aS'-2238'
p4325
aS'-2259'
p4326
aS'-2276'
p4327
aS'-2290'
p4328
aS'-2301'
p4329
aS'-2326'
p4330
aS'-2335'
p4331
aS'-2338'
p4332
aS'-2377'
p4333
aS'-2431'
p4334
aS'-2505'
p4335
aS'-2506'
p4336
aS'-2520'
p4337
aS'-2551'
p4338
aS'-2581'
p4339
aS'-2655'
p4340
aS'-2688'
p4341
aS'-2719'
p4342
aS'-2731'
p4343
aS'-2793'
p4344
aS'-2840'
p4345
aS'-2872'
p4346
aS'-2881'
p4347
aS'-2950'
p4348
aS'-2953'
p4349
aS'-2991'
p4350
aS'-2995'
p4351
aS'-3018'
p4352
aS'-3021'
p4353
aS'-3036'
p4354
aS'-3044'
p4355
aS'-3049'
p4356
aS'-3064'
p4357
aS'-3122'
p4358
aS'-3174'
p4359
aS'-3181'
p4360
aS'-3238'
p4361
aS'-3273'
p4362
aS'-3343'
p4363
aS'-3387'
p4364
aS'-3452'
p4365
aS'-3459'
p4366
aS'-3490'
p4367
aS'-3503'
p4368
aS'-3564'
p4369
aS'-3571'
p4370
aS'-3577'
p4371
aS'-3580'
p4372
aS'-3588'
p4373
aS'-3593'
p4374
aS'-3646'
p4375
aS'-3703'
p4376
aS'-3704'
p4377
aS'-3707'
p4378
aS'-3708'
p4379
aS'-3726'
p4380
aS'-3754'
p4381
aS'-3758'
p4382
aS'-3785'
p4383
aS'-3804'
p4384
aS'-3821'
p4385
aS'-3826'
p4386
aS'-3830'
p4387
aS'-3902'
p4388
aS'-3918'
p4389
aS'-3957'
p4390
aS'-3958'
p4391
aS'-3977'
p4392
aS'-3993'
p4393
aS'-4030'
p4394
aS'-4064'
p4395
aS'-4108'
p4396
aS'-4123'
p4397
aS'-4124'
p4398
aS'-4160'
p4399
aS'-4167'
p4400
aS'-4231'
p4401
aS'-4232'
p4402
aS'-4282'
p4403
aS'-4392'
p4404
aS'-4412'
p4405
aS'-4447'
p4406
aS'-4517'
p4407
aS'-4518'
p4408
aS'-4524'
p4409
aS'-4541'
p4410
aS'-4587'
p4411
aS'-4665'
p4412
aS'-4669'
p4413
aS'-4673'
p4414
aS'-4704'
p4415
aS'-4712'
p4416
aS'-4719'
p4417
aS'-4735'
p4418
aS'-4829'
p4419
aS'-4852'
p4420
aS'-4876'
p4421
aS'-4959'
p4422
aS'-4974'
p4423
aS'-5026'
p4424
aS'-5136'
p4425
aS'-5155'
p4426
aS'-5193'
p4427
aS'-5220'
p4428
aS'-5238'
p4429
aS'-5265'
p4430
aS'-5296'
p4431
aS'-5313'
p4432
aS'-5390'
p4433
aS'-5410'
p4434
aS'-5471'
p4435
aS'-5504'
p4436
aS'-5521'
p4437
aS'-5530'
p4438
aS'-5541'
p4439
aS'-5568'
p4440
aS'-5569'
p4441
aS'-5612'
p4442
aS'-5613'
p4443
aS'-5621'
p4444
aS'-5663'
p4445
aS'-5686'
p4446
aS'-5723'
p4447
aS'-5729'
p4448
aS'-5745'
p4449
aS'-5794'
p4450
aS'-5802'
p4451
aS'-5824'
p4452
aS'-5839'
p4453
aS'-5851'
p4454
aS'-5863'
p4455
aS'-5879'
p4456
aS'-5962'
p4457
aS'-6002'
p4458
aS'-6003'
p4459
aS'-6040'
p4460
aS'-6155'
p4461
aS'-6183'
p4462
aS'-6220'
p4463
aS'-6238'
p4464
aS'-6263'
p4465
aS'-6266'
p4466
aS'-6267'
p4467
aS'-6290'
p4468
aS'-6294'
p4469
aS'-6320'
p4470
aS'-6366'
p4471
aS'-6367'
p4472
aS'-6379'
p4473
aS'-6401'
p4474
aS'-6440'
p4475
aS'-6503'
p4476
aS'-6519'
p4477
aS'-6535'
p4478
aS'-6564'
p4479
aS'-6596'
p4480
aS'-6709'
p4481
aS'-6734'
p4482
aS'-6750'
p4483
aS'-6751'
p4484
aS'-6823'
p4485
aS'-6876'
p4486
aS'-6880'
p4487
aS'-6885'
p4488
aS'-6890'
p4489
aS'-6957'
p4490
aS'-6975'
p4491
aS'-6990'
p4492
aS'-7044'
p4493
aS'-7067'
p4494
aS'-7104'
p4495
aS'-7126'
p4496
aS'-7137'
p4497
aS'-7161'
p4498
aS'-7205'
p4499
aS'-7228'
p4500
aS'-7279'
p4501
aS'-7318'
p4502
aS'-7321'
p4503
aS'-7327'
p4504
aS'-7347'
p4505
aS'-7348'
p4506
aS'-7362'
p4507
aS'-7367'
p4508
aS'-7387'
p4509
aS'-7396'
p4510
aS'-7492'
p4511
aS'-7569'
p4512
aS'-7636'
p4513
aS'-7982'
p4514
aS'-8265'
p4515
aS'-8369'
p4516
aS'-8464'
p4517
aS'-8512'
p4518
aS'-8575'
p4519
aS'-8586'
p4520
aS'-8666'
p4521
aS'-8781'
p4522
aS'-8800'
p4523
aS'-8830'
p4524
aS'-8831'
p4525
aS'-8860'
p4526
aS'-8868'
p4527
aS'-8876'
p4528
aS'-8887'
p4529
aS'-8908'
p4530
aS'-8910'
p4531
aS'-8917'
p4532
aS'-8932'
p4533
aS'-8939'
p4534
aS'-8967'
p4535
aS'-8969'
p4536
aS'-8977'
p4537
aS'-8981'
p4538
aS'-26256'
p4539
aS'-26323'
p4540
aS'-26386'
p4541
aS'-26409'
p4542
aS'-26567'
p4543
aS'-26875'
p4544
aS'-27020'
p4545
aS'-27044'
p4546
aS'-27327'
p4547
aS'-27491'
p4548
aS'-27584'
p4549
aS'-27592'
p4550
aS'-27833'
p4551
aS'-27846'
p4552
aS'-30810'
p4553
aS'-31424'
p4554
aS'-32011'
p4555
aS'-32296'
p4556
aS'-32600'
p4557
aS'-32721'
p4558
aS'-33126'
p4559
aS'-33166'
p4560
aS'-33679'
p4561
aS'-33836'
p4562
aS'-34065'
p4563
aS'-34150'
p4564
aS'-34306'
p4565
aS'-34323'
p4566
aS'-34338'
p4567
aS'-34538'
p4568
aS'-37277'
p4569
aS'-37386'
p4570
aS'-37477'
p4571
aS'-37727'
p4572
aS'-40723'
p4573
aS'-40851'
p4574
aS'-40966'
p4575
aS'-41573'
p4576
aS'-42009'
p4577
aS'-42053'
p4578
aS'-42285'
p4579
aS'-42734'
p4580
aS'-43589'
p4581
aS'-43921'
p4582
aS'-44004'
p4583
aS'-44709'
p4584
aS'-44731'
p4585
aS'-44759'
p4586
aS'-44864'
p4587
aS'-44974'
p4588
aS'-45081'
p4589
aS'-45361'
p4590
aS'-45442'
p4591
aS'-45666'
p4592
aS'-45720'
p4593
aS'-45730'
p4594
aS'-45732'
p4595
aS'-46976'
p4596
aS'-47200'
p4597
aS'-47330'
p4598
aS'-47810'
p4599
aS'-47952'
p4600
aS'-48043'
p4601
aS'-48150'
p4602
aS'-48416'
p4603
aS'-48593'
p4604
aS'-48596'
p4605
aS'-48696'
p4606
aS'-48877'
p4607
aS'-48982'
p4608
aS'-49115'
p4609
aS'-49205'
p4610
aS'-50445'
p4611
aS'-50619'
p4612
aS'-50794'
p4613
aS'-50923'
p4614
aS'-51086'
p4615
aS'-51498'
p4616
aS'-51925'
p4617
aS'-52005'
p4618
aS'-52245'
p4619
aS'-52283'
p4620
aS'-52458'
p4621
aS'-52644'
p4622
aS'-52838'
p4623
aS'-52950'
p4624
aS'-53127'
p4625
aS'-53143'
p4626
aS'-53322'
p4627
aS'-53519'
p4628
aS'-53953'
p4629
aS'-53996'
p4630
aS'-54274'
p4631
aS'-54775'
p4632
aS'-54787'
p4633
aS'-55116'
p4634
aS'-55241'
p4635
aS'-55255'
p4636
aS'-55278'
p4637
aS'-55406'
p4638
aS'-55946'
p4639
aS'-56001'
p4640
aS'-56003'
p4641
aS'-56028'
p4642
aS'-56060'
p4643
aS'-56093'
p4644
aS'-56805'
p4645
aS'-56949'
p4646
aS'-57534'
p4647
aS'-57637'
p4648
aS'-58301'
p4649
aS'-58332'
p4650
aS'-59103'
p4651
aS'-59173'
p4652
aS'-59387'
p4653
aS'-59594'
p4654
aS'-59709'
p4655
aS'-59725'
p4656
aS'-59727'
p4657
aS'-60044'
p4658
aS'-60072'
p4659
aS'-60074'
p4660
aS'-60514'
p4661
aS'-60756'
p4662
aS'-60941'
p4663
aS'-61289'
p4664
aS'-61312'
p4665
aS'-62081'
p4666
aS'-63033'
p4667
aS'-64037'
p4668
aS'-65126'
p4669
aS'-65181'
p4670
aS'-65631'
p4671
aS'-65642'
p4672
aS'-66472'
p4673
aS'-67620'
p4674
aS'-67695'
p4675
aS'-67788'
p4676
aS'-69453'
p4677
aS'-69904'
p4678
aS'-69951'
p4679
aS'-70093'
p4680
aS'-70545'
p4681
aS'-70656'
p4682
aS'-71252'
p4683
aS'-71450'
p4684
aS'-71490'
p4685
aS'-71518'
p4686
aS'-71520'
p4687
aS'-71579'
p4688
aS'-71732'
p4689
aS'-71745'
p4690
aS'-72380'
p4691
aS'-73000'
p4692
aS'-74530'
p4693
aS'-74701'
p4694
aS'-74750'
p4695
aS'-74967'
p4696
aS'-75805'
p4697
aS'-76175'
p4698
aS'-76317'
p4699
aS'-77416'
p4700
aS'-77449'
p4701
aS'-77561'
p4702
aS'-78295'
p4703
aS'-78483'
p4704
aS'-78827'
p4705
aS'-79397'
p4706
aS'-80653'
p4707
aa.