(lp1
(lp2
S'-8'
p3
aS'-35'
p4
aS'-104'
p5
aS'-112'
p6
aS'-120'
p7
aS'-143'
p8
aS'-219'
p9
aS'-231'
p10
aS'-243'
p11
aS'-247'
p12
aS'-254'
p13
aS'-259'
p14
aS'-260'
p15
aS'-261'
p16
aS'-263'
p17
aa(lp18
S'-294'
p19
aS'-315'
p20
aa(lp21
S'-332'
p22
aS'-336'
p23
aS'-337'
p24
aS'-341'
p25
aS'-353'
p26
aa(lp27
a(lp28
S'-110'
p29
aS'-364'
p30
aS'-365'
p31
aS'-368'
p32
aS'-369'
p33
aS'-370'
p34
aS'-381'
p35
aS'-406'
p36
aS'-411'
p37
aS'-415'
p38
aS'-424'
p39
aS'-450'
p40
aS'-451'
p41
aS'-456'
p42
aa(lp43
S'-259'
p44
aS'-405'
p45
aS'-458'
p46
aS'-472'
p47
aS'-476'
p48
aS'-477'
p49
aa(lp50
S'-70'
p51
aS'-145'
p52
aS'-212'
p53
aS'-599'
p54
aS'-681'
p55
aa(lp56
S'-259'
p57
aS'-385'
p58
aS'-457'
p59
aS'-687'
p60
aS'-688'
p61
aa(lp62
S'-690'
p63
aa(lp64
a(lp65
S'-260'
p66
aS'-324'
p67
aS'-720'
p68
aS'-748'
p69
aa(lp70
a(lp71
S'-5'
p72
aS'-11'
p73
aS'-17'
p74
aS'-24'
p75
aS'-25'
p76
aS'-37'
p77
aS'-53'
p78
aS'-67'
p79
aS'-78'
p80
aS'-86'
p81
aS'-128'
p82
aS'-138'
p83
aS'-143'
p84
aS'-158'
p85
aS'-184'
p86
aS'-201'
p87
aS'-217'
p88
aS'-218'
p89
aS'-219'
p90
aS'-260'
p91
aS'-271'
p92
aS'-287'
p93
aS'-288'
p94
aS'-300'
p95
aS'-301'
p96
aS'-320'
p97
aS'-338'
p98
aS'-370'
p99
aS'-377'
p100
aS'-379'
p101
aS'-382'
p102
aS'-401'
p103
aS'-406'
p104
aS'-410'
p105
aS'-413'
p106
aS'-424'
p107
aS'-431'
p108
aS'-437'
p109
aS'-438'
p110
aS'-439'
p111
aS'-440'
p112
aS'-441'
p113
aS'-446'
p114
aS'-448'
p115
aS'-451'
p116
aS'-471'
p117
aS'-485'
p118
aS'-507'
p119
aS'-541'
p120
aS'-547'
p121
aS'-551'
p122
aS'-558'
p123
aS'-559'
p124
aS'-561'
p125
aS'-563'
p126
aS'-564'
p127
aS'-565'
p128
aS'-567'
p129
aS'-629'
p130
aS'-635'
p131
aS'-667'
p132
aS'-668'
p133
aS'-669'
p134
aS'-672'
p135
aS'-706'
p136
aS'-740'
p137
aS'-758'
p138
aS'-760'
p139
aS'-763'
p140
aS'-767'
p141
aS'-772'
p142
aS'-773'
p143
aS'-774'
p144
aS'-777'
p145
aS'-780'
p146
aS'-784'
p147
aS'-788'
p148
aS'-800'
p149
aS'-813'
p150
aS'-816'
p151
aS'-817'
p152
aS'-819'
p153
aS'-825'
p154
aS'-828'
p155
aS'-830'
p156
aS'-834'
p157
aS'-838'
p158
aS'-839'
p159
aS'-841'
p160
aS'-844'
p161
aS'-849'
p162
aS'-852'
p163
aS'-853'
p164
aS'-854'
p165
aS'-858'
p166
aS'-859'
p167
aS'-860'
p168
aS'-873'
p169
aS'-875'
p170
aS'-895'
p171
aa(lp172
S'-70'
p173
aS'-319'
p174
aa(lp175
S'-1'
p176
aS'-7'
p177
aS'-13'
p178
aS'-18'
p179
aS'-243'
p180
aS'-248'
p181
aS'-249'
p182
aS'-278'
p183
aS'-307'
p184
aS'-323'
p185
aS'-333'
p186
aS'-455'
p187
aS'-678'
p188
aS'-749'
p189
aa(lp190
S'-284'
p191
aS'-941'
p192
aa(lp193
S'-125'
p194
aS'-243'
p195
aS'-323'
p196
aa(lp197
a(lp198
a(lp199
S'-69'
p200
aS'-288'
p201
aS'-763'
p202
aS'-866'
p203
aS'-931'
p204
aa(lp205
S'-103'
p206
aS'-118'
p207
aS'-121'
p208
aS'-148'
p209
aS'-245'
p210
aS'-261'
p211
aS'-263'
p212
aS'-299'
p213
aS'-370'
p214
aS'-406'
p215
aS'-424'
p216
aS'-457'
p217
aS'-680'
p218
aS'-688'
p219
aS'-717'
p220
aS'-748'
p221
aS'-758'
p222
aS'-760'
p223
aS'-767'
p224
aS'-834'
p225
aS'-930'
p226
aS'-948'
p227
aS'-976'
p228
aS'-978'
p229
aS'-982'
p230
aS'-984'
p231
aS'-986'
p232
aS'-988'
p233
aa(lp234
S'-105'
p235
aS'-110'
p236
aS'-163'
p237
aS'-294'
p238
aS'-367'
p239
aS'-377'
p240
aS'-411'
p241
aS'-456'
p242
aS'-683'
p243
aS'-687'
p244
aS'-688'
p245
aS'-780'
p246
aS'-791'
p247
aS'-862'
p248
aS'-878'
p249
aS'-926'
p250
aS'-932'
p251
aS'-948'
p252
aS'-988'
p253
aS'-996'
p254
aS'-997'
p255
aS'-998'
p256
aS'-1001'
p257
aS'-1002'
p258
aS'-1003'
p259
aa(lp260
S'-235'
p261
aa(lp262
a(lp263
a(lp264
S'-748'
p265
aa(lp266
a(lp267
S'-450'
p268
aa(lp269
a(lp270
S'-873'
p271
aa(lp272
a(lp273
a(lp274
a(lp275
S'-294'
p276
aa(lp277
S'-358'
p278
aa(lp279
S'-682'
p280
aa(lp281
S'-82'
p282
aa(lp283
S'-145'
p284
aS'-195'
p285
aS'-211'
p286
aS'-226'
p287
aS'-257'
p288
aS'-403'
p289
aS'-432'
p290
aS'-450'
p291
aS'-526'
p292
aS'-1034'
p293
aa(lp294
a(lp295
S'-269'
p296
aa(lp297
a(lp298
S'-111'
p299
aS'-276'
p300
aS'-413'
p301
aS'-595'
p302
aS'-1048'
p303
aa(lp304
S'-47'
p305
aS'-123'
p306
aS'-277'
p307
aS'-792'
p308
aa(lp309
a(lp310
a(lp311
a(lp312
a(lp313
S'-269'
p314
aS'-289'
p315
aa(lp316
S'-38'
p317
aS'-50'
p318
aS'-77'
p319
aS'-82'
p320
aS'-121'
p321
aS'-123'
p322
aS'-145'
p323
aS'-148'
p324
aS'-172'
p325
aS'-174'
p326
aS'-181'
p327
aS'-204'
p328
aS'-219'
p329
aS'-294'
p330
aS'-300'
p331
aS'-358'
p332
aS'-413'
p333
aS'-590'
p334
aS'-640'
p335
aS'-737'
p336
aS'-758'
p337
aS'-820'
p338
aS'-1078'
p339
aa(lp340
S'-124'
p341
aS'-325'
p342
aa(lp343
S'-485'
p344
aS'-705'
p345
aa(lp346
a(lp347
a(lp348
S'-24'
p349
aS'-930'
p350
aa(lp351
S'-405'
p352
aS'-685'
p353
aS'-1016'
p354
aS'-1089'
p355
aa(lp356
S'-88'
p357
aS'-233'
p358
aa(lp359
S'-472'
p360
aS'-825'
p361
aS'-831'
p362
aa(lp363
S'-20'
p364
aS'-69'
p365
aS'-283'
p366
aS'-1008'
p367
aS'-1063'
p368
aa(lp369
S'-143'
p370
aS'-235'
p371
aS'-274'
p372
aS'-926'
p373
aS'-1028'
p374
aS'-1120'
p375
aa(lp376
a(lp377
S'-301'
p378
aa(lp379
S'-33'
p380
aS'-68'
p381
aS'-271'
p382
aS'-294'
p383
aS'-763'
p384
aS'-924'
p385
aS'-931'
p386
aS'-1028'
p387
aS'-1060'
p388
aa(lp389
S'-282'
p390
aS'-323'
p391
aS'-1011'
p392
aa(lp393
S'-32'
p394
aS'-218'
p395
aS'-539'
p396
aS'-748'
p397
aS'-1065'
p398
aa(lp399
S'-7'
p400
aS'-70'
p401
aa(lp402
S'-286'
p403
aS'-877'
p404
aa(lp405
S'-412'
p406
aa(lp407
S'-121'
p408
aS'-125'
p409
aS'-458'
p410
aS'-742'
p411
aS'-763'
p412
aS'-926'
p413
aa(lp414
S'-245'
p415
aS'-879'
p416
aa(lp417
S'-450'
p418
aa(lp419
S'-151'
p420
aa(lp421
S'-7'
p422
aS'-172'
p423
aS'-181'
p424
aS'-222'
p425
aS'-228'
p426
aS'-271'
p427
aS'-380'
p428
aS'-647'
p429
aa(lp430
S'-94'
p431
aS'-894'
p432
aa(lp433
a(lp434
S'-220'
p435
aS'-240'
p436
aS'-289'
p437
aS'-291'
p438
aS'-322'
p439
aS'-476'
p440
aS'-742'
p441
aS'-825'
p442
aS'-1001'
p443
aS'-1059'
p444
aS'-1152'
p445
aa(lp446
a(lp447
S'-252'
p448
aS'-833'
p449
aS'-1028'
p450
aa(lp451
S'-323'
p452
aS'-327'
p453
aa(lp454
a(lp455
S'-260'
p456
aa(lp457
S'-412'
p458
aS'-456'
p459
aS'-756'
p460
aS'-1028'
p461
aa(lp462
S'-112'
p463
aS'-235'
p464
aS'-424'
p465
aS'-671'
p466
aS'-756'
p467
aS'-1001'
p468
aa(lp469
S'-235'
p470
aS'-412'
p471
aa(lp472
a(lp473
S'-924'
p474
aa(lp475
S'-338'
p476
aa(lp477
a(lp478
a(lp479
S'-137'
p480
aS'-221'
p481
aa(lp482
S'-69'
p483
aS'-875'
p484
aa(lp485
S'-56'
p486
aa(lp487
S'-220'
p488
aS'-227'
p489
aS'-243'
p490
aS'-370'
p491
aS'-453'
p492
aS'-758'
p493
aS'-771'
p494
aS'-820'
p495
aS'-834'
p496
aS'-922'
p497
aS'-931'
p498
aS'-1047'
p499
aS'-1209'
p500
aS'-1210'
p501
aa(lp502
S'-125'
p503
aS'-151'
p504
aa(lp505
S'-125'
p506
aS'-550'
p507
aS'-569'
p508
aS'-820'
p509
aa(lp510
S'-3'
p511
aS'-101'
p512
aS'-403'
p513
aS'-560'
p514
aS'-636'
p515
aS'-715'
p516
aS'-1231'
p517
aa(lp518
S'-42'
p519
aa(lp520
S'-83'
p521
aS'-192'
p522
aa(lp523
S'-173'
p524
aS'-988'
p525
aa(lp526
S'-111'
p527
aS'-274'
p528
aS'-342'
p529
aS'-873'
p530
aS'-1052'
p531
aa(lp532
S'-321'
p533
aS'-874'
p534
aS'-880'
p535
aS'-881'
p536
aS'-908'
p537
aS'-1234'
p538
aa(lp539
S'-819'
p540
aS'-1093'
p541
aa(lp542
S'-29'
p543
aS'-444'
p544
aS'-450'
p545
aS'-515'
p546
aS'-665'
p547
aS'-672'
p548
aS'-760'
p549
aS'-986'
p550
aS'-1228'
p551
aa(lp552
a(lp553
S'-271'
p554
aS'-286'
p555
aS'-311'
p556
aS'-324'
p557
aS'-325'
p558
aS'-330'
p559
aS'-546'
p560
aS'-744'
p561
aS'-984'
p562
aS'-1241'
p563
aa(lp564
a(lp565
a(lp566
S'-300'
p567
aS'-322'
p568
aa(lp569
a(lp570
S'-42'
p571
aS'-101'
p572
aS'-131'
p573
aS'-158'
p574
aS'-175'
p575
aS'-209'
p576
aS'-214'
p577
aS'-386'
p578
aS'-410'
p579
aS'-475'
p580
aa(lp581
S'-56'
p582
aS'-184'
p583
aS'-212'
p584
aS'-231'
p585
aS'-338'
p586
aS'-688'
p587
aa(lp588
a(lp589
S'-325'
p590
aS'-327'
p591
aa(lp592
S'-424'
p593
aa(lp594
a(lp595
S'-496'
p596
aS'-596'
p597
aa(lp598
S'-758'
p599
aS'-1256'
p600
aS'-1257'
p601
aa(lp602
S'-743'
p603
aa(lp604
a(lp605
S'-755'
p606
aa(lp607
a(lp608
S'-117'
p609
aS'-249'
p610
aS'-282'
p611
aS'-458'
p612
aa(lp613
S'-11'
p614
aa(lp615
S'-289'
p616
aS'-294'
p617
aa(lp618
S'-496'
p619
aa(lp620
S'-25'
p621
aS'-56'
p622
aS'-150'
p623
aS'-152'
p624
aS'-236'
p625
aS'-269'
p626
aS'-340'
p627
aS'-346'
p628
aS'-372'
p629
aS'-382'
p630
aS'-475'
p631
aS'-482'
p632
aS'-508'
p633
aS'-813'
p634
aS'-914'
p635
aS'-1272'
p636
aa(lp637
S'-260'
p638
aS'-682'
p639
aa(lp640
S'-268'
p641
aS'-286'
p642
aS'-690'
p643
aS'-750'
p644
aa(lp645
S'-220'
p646
aS'-371'
p647
aS'-468'
p648
aS'-873'
p649
aa(lp650
a(lp651
S'-245'
p652
aa(lp653
S'-137'
p654
aa(lp655
a(lp656
S'-539'
p657
aa(lp658
a(lp659
a(lp660
a(lp661
a(lp662
a(lp663
a(lp664
a(lp665
S'-235'
p666
aS'-276'
p667
aS'-279'
p668
aS'-290'
p669
aS'-292'
p670
aS'-1059'
p671
aS'-1142'
p672
aa(lp673
S'-147'
p674
aS'-243'
p675
aa(lp676
a(lp677
S'-93'
p678
aS'-235'
p679
aS'-280'
p680
aS'-307'
p681
aS'-475'
p682
aS'-815'
p683
aS'-1013'
p684
aa(lp685
S'-59'
p686
aS'-226'
p687
aS'-276'
p688
aS'-460'
p689
aS'-590'
p690
aS'-770'
p691
aS'-933'
p692
aS'-934'
p693
aS'-974'
p694
aS'-983'
p695
aS'-1033'
p696
aS'-1057'
p697
aS'-1087'
p698
aS'-1279'
p699
aS'-1283'
p700
aS'-1289'
p701
aS'-1290'
p702
aS'-1292'
p703
aa(lp704
S'-294'
p705
aS'-688'
p706
aa(lp707
a(lp708
S'-140'
p709
aS'-185'
p710
aS'-191'
p711
aa(lp712
S'-262'
p713
aS'-333'
p714
aa(lp715
a(lp716
S'-260'
p717
aS'-469'
p718
aS'-962'
p719
aS'-1006'
p720
aS'-1098'
p721
aa(lp722
S'-559'
p723
aS'-1054'
p724
aa(lp725
a(lp726
a(lp727
a(lp728
a(lp729
S'-250'
p730
aa(lp731
S'-120'
p732
aS'-235'
p733
aS'-294'
p734
aa(lp735
S'-103'
p736
aS'-130'
p737
aS'-286'
p738
aS'-319'
p739
aS'-845'
p740
aS'-872'
p741
aS'-1258'
p742
aa(lp743
S'-21'
p744
aS'-832'
p745
aS'-864'
p746
aa(lp747
S'-48'
p748
aS'-132'
p749
aS'-168'
p750
aS'-194'
p751
aS'-582'
p752
aa(lp753
a(lp754
S'-433'
p755
aa(lp756
a(lp757
a(lp758
S'-286'
p759
aS'-346'
p760
aS'-687'
p761
aa(lp762
S'-48'
p763
aS'-184'
p764
aS'-232'
p765
aS'-240'
p766
aS'-392'
p767
aS'-554'
p768
aS'-675'
p769
aS'-719'
p770
aS'-949'
p771
aS'-1308'
p772
aS'-1309'
p773
aa(lp774
S'-7'
p775
aS'-9'
p776
aS'-255'
p777
aS'-276'
p778
aS'-325'
p779
aS'-678'
p780
aa(lp781
S'-260'
p782
aa(lp783
a(lp784
a(lp785
S'-425'
p786
aS'-772'
p787
aa(lp788
S'-687'
p789
aa(lp790
S'-122'
p791
aS'-168'
p792
aS'-240'
p793
aS'-323'
p794
aS'-368'
p795
aS'-412'
p796
aS'-763'
p797
aS'-871'
p798
aS'-1254'
p799
aa(lp800
S'-508'
p801
aS'-669'
p802
aa(lp803
S'-751'
p804
aa(lp805
S'-69'
p806
aS'-270'
p807
aa(lp808
S'-235'
p809
aS'-259'
p810
aS'-340'
p811
aa(lp812
S'-303'
p813
aS'-321'
p814
aS'-353'
p815
aS'-362'
p816
aS'-750'
p817
aS'-902'
p818
aS'-1127'
p819
aa(lp820
S'-67'
p821
aS'-153'
p822
aS'-367'
p823
aS'-716'
p824
aS'-790'
p825
aa(lp826
S'-6'
p827
aS'-14'
p828
aS'-18'
p829
aS'-19'
p830
aS'-20'
p831
aS'-24'
p832
aS'-93'
p833
aS'-103'
p834
aS'-104'
p835
aS'-109'
p836
aS'-112'
p837
aS'-116'
p838
aS'-124'
p839
aS'-146'
p840
aS'-149'
p841
aS'-150'
p842
aS'-221'
p843
aS'-224'
p844
aS'-236'
p845
aS'-242'
p846
aS'-243'
p847
aS'-251'
p848
aS'-256'
p849
aS'-259'
p850
aS'-260'
p851
aS'-261'
p852
aS'-263'
p853
aS'-266'
p854
aS'-268'
p855
aS'-269'
p856
aS'-273'
p857
aS'-279'
p858
aS'-286'
p859
aS'-292'
p860
aS'-299'
p861
aS'-303'
p862
aS'-304'
p863
aS'-306'
p864
aS'-307'
p865
aS'-308'
p866
aS'-322'
p867
aS'-324'
p868
aS'-326'
p869
aS'-329'
p870
aS'-330'
p871
aS'-331'
p872
aS'-334'
p873
aS'-335'
p874
aS'-337'
p875
aS'-359'
p876
aS'-360'
p877
aS'-406'
p878
aS'-408'
p879
aS'-410'
p880
aS'-424'
p881
aS'-455'
p882
aS'-456'
p883
aS'-457'
p884
aS'-459'
p885
aS'-477'
p886
aS'-544'
p887
aS'-547'
p888
aS'-593'
p889
aS'-598'
p890
aS'-680'
p891
aS'-681'
p892
aS'-683'
p893
aS'-687'
p894
aS'-688'
p895
aS'-718'
p896
aS'-741'
p897
aS'-748'
p898
aS'-749'
p899
aS'-763'
p900
aS'-764'
p901
aS'-766'
p902
aS'-829'
p903
aS'-844'
p904
aS'-847'
p905
aS'-872'
p906
aS'-873'
p907
aS'-874'
p908
aS'-876'
p909
aS'-878'
p910
aS'-880'
p911
aS'-881'
p912
aS'-882'
p913
aS'-883'
p914
aS'-884'
p915
aS'-885'
p916
aS'-886'
p917
aS'-887'
p918
aS'-919'
p919
aS'-920'
p920
aS'-926'
p921
aS'-927'
p922
aS'-933'
p923
aS'-938'
p924
aS'-948'
p925
aS'-952'
p926
aS'-980'
p927
aS'-981'
p928
aS'-984'
p929
aS'-985'
p930
aS'-989'
p931
aS'-990'
p932
aS'-991'
p933
aS'-995'
p934
aS'-1010'
p935
aS'-1017'
p936
aS'-1022'
p937
aS'-1025'
p938
aS'-1026'
p939
aS'-1034'
p940
aS'-1038'
p941
aS'-1060'
p942
aS'-1067'
p943
aS'-1068'
p944
aS'-1081'
p945
aS'-1085'
p946
aS'-1086'
p947
aS'-1087'
p948
aS'-1093'
p949
aS'-1095'
p950
aS'-1097'
p951
aS'-1115'
p952
aS'-1120'
p953
aS'-1128'
p954
aS'-1129'
p955
aS'-1137'
p956
aS'-1161'
p957
aS'-1162'
p958
aS'-1165'
p959
aS'-1171'
p960
aS'-1173'
p961
aS'-1174'
p962
aS'-1187'
p963
aS'-1197'
p964
aS'-1198'
p965
aS'-1199'
p966
aS'-1202'
p967
aS'-1242'
p968
aS'-1245'
p969
aS'-1252'
p970
aS'-1255'
p971
aS'-1259'
p972
aS'-1265'
p973
aS'-1272'
p974
aS'-1276'
p975
aS'-1280'
p976
aS'-1282'
p977
aS'-1284'
p978
aS'-1288'
p979
aS'-1289'
p980
aS'-1295'
p981
aS'-1296'
p982
aS'-1302'
p983
aS'-1312'
p984
aS'-1317'
p985
aS'-1318'
p986
aS'-1319'
p987
aS'-1320'
p988
aS'-1321'
p989
aS'-1322'
p990
aS'-1323'
p991
aS'-1324'
p992
aS'-1325'
p993
aS'-1328'
p994
aS'-1329'
p995
aS'-1330'
p996
aS'-1331'
p997
aS'-1332'
p998
aS'-1333'
p999
aS'-1334'
p1000
aS'-1338'
p1001
aS'-1339'
p1002
aS'-1340'
p1003
aS'-1341'
p1004
aS'-1342'
p1005
aS'-1343'
p1006
aS'-1344'
p1007
aS'-1345'
p1008
aS'-1346'
p1009
aS'-1347'
p1010
aS'-1348'
p1011
aS'-1349'
p1012
aS'-1350'
p1013
aS'-1351'
p1014
aS'-1352'
p1015
aS'-1353'
p1016
aS'-1354'
p1017
aS'-1357'
p1018
aS'-1358'
p1019
aS'-1359'
p1020
aS'-1360'
p1021
aS'-1362'
p1022
aS'-1363'
p1023
aS'-1364'
p1024
aS'-1366'
p1025
aS'-1368'
p1026
aS'-1369'
p1027
aS'-1370'
p1028
aS'-1371'
p1029
aS'-1372'
p1030
aS'-1373'
p1031
aS'-1374'
p1032
aS'-1375'
p1033
aS'-1377'
p1034
aS'-1378'
p1035
aS'-1379'
p1036
aS'-1380'
p1037
aS'-1382'
p1038
aS'-1383'
p1039
aS'-1384'
p1040
aS'-1385'
p1041
aS'-1386'
p1042
aS'-1387'
p1043
aS'-1388'
p1044
aS'-1389'
p1045
aS'-1390'
p1046
aS'-1391'
p1047
aS'-1392'
p1048
aS'-1393'
p1049
aS'-1394'
p1050
aS'-1395'
p1051
aa(lp1052
a(lp1053
a(lp1054
S'-368'
p1055
aa(lp1056
S'-160'
p1057
aa(lp1058
S'-12'
p1059
aS'-53'
p1060
aS'-250'
p1061
aS'-288'
p1062
aS'-406'
p1063
aS'-554'
p1064
aS'-1083'
p1065
aa(lp1066
a(lp1067
S'-240'
p1068
aa(lp1069
S'-118'
p1070
aS'-120'
p1071
aS'-516'
p1072
aS'-820'
p1073
aa(lp1074
S'-9'
p1075
aS'-340'
p1076
aa(lp1077
a(lp1078
a(lp1079
S'-56'
p1080
aS'-96'
p1081
aS'-111'
p1082
aS'-195'
p1083
aS'-260'
p1084
aS'-288'
p1085
aS'-294'
p1086
aS'-327'
p1087
aS'-333'
p1088
aS'-343'
p1089
aS'-352'
p1090
aS'-541'
p1091
aS'-682'
p1092
aS'-895'
p1093
aa(lp1094
S'-78'
p1095
aS'-212'
p1096
aS'-222'
p1097
aS'-227'
p1098
aS'-228'
p1099
aS'-229'
p1100
aS'-230'
p1101
aS'-286'
p1102
aS'-289'
p1103
aS'-380'
p1104
aS'-456'
p1105
aS'-582'
p1106
aS'-640'
p1107
aS'-790'
p1108
aS'-820'
p1109
aa(lp1110
S'-1052'
p1111
aS'-1228'
p1112
aS'-1415'
p1113
aa(lp1114
a(lp1115
S'-11'
p1116
aS'-56'
p1117
aS'-259'
p1118
aS'-286'
p1119
aS'-688'
p1120
aS'-1420'
p1121
aa(lp1122
S'-100'
p1123
aS'-117'
p1124
aS'-122'
p1125
aS'-298'
p1126
aS'-369'
p1127
aS'-410'
p1128
aS'-411'
p1129
aS'-820'
p1130
aS'-871'
p1131
aS'-1094'
p1132
aa(lp1133
S'-1'
p1134
aS'-243'
p1135
aS'-259'
p1136
aS'-294'
p1137
aS'-324'
p1138
aS'-539'
p1139
aS'-678'
p1140
aS'-687'
p1141
aS'-892'
p1142
aS'-948'
p1143
aS'-988'
p1144
aS'-989'
p1145
aa(lp1146
a(lp1147
S'-31'
p1148
aS'-39'
p1149
aS'-116'
p1150
aS'-358'
p1151
aS'-370'
p1152
aS'-406'
p1153
aS'-431'
p1154
aS'-438'
p1155
aS'-441'
p1156
aS'-452'
p1157
aS'-551'
p1158
aS'-563'
p1159
aS'-583'
p1160
aS'-590'
p1161
aS'-702'
p1162
aS'-774'
p1163
aS'-777'
p1164
aS'-825'
p1165
aS'-886'
p1166
aS'-1355'
p1167
aa(lp1168
S'-286'
p1169
aS'-481'
p1170
aS'-515'
p1171
aa(lp1172
S'-100'
p1173
aa(lp1174
S'-310'
p1175
aS'-321'
p1176
aS'-333'
p1177
aS'-336'
p1178
aS'-748'
p1179
aa(lp1180
S'-1025'
p1181
aa(lp1182
S'-245'
p1183
aS'-300'
p1184
aS'-314'
p1185
aS'-323'
p1186
aS'-326'
p1187
aS'-336'
p1188
aS'-343'
p1189
aS'-359'
p1190
aS'-678'
p1191
aS'-683'
p1192
aS'-900'
p1193
aS'-990'
p1194
aS'-1022'
p1195
aS'-1430'
p1196
aa(lp1197
S'-175'
p1198
aS'-997'
p1199
aa(lp1200
S'-302'
p1201
aa(lp1202
a(lp1203
a(lp1204
S'-443'
p1205
aa(lp1206
a(lp1207
S'-235'
p1208
aS'-1215'
p1209
aa(lp1210
a(lp1211
a(lp1212
a(lp1213
S'-27'
p1214
aS'-50'
p1215
aS'-53'
p1216
aS'-121'
p1217
aS'-172'
p1218
aS'-181'
p1219
aS'-226'
p1220
aS'-258'
p1221
aS'-363'
p1222
aS'-398'
p1223
aS'-540'
p1224
aS'-550'
p1225
aS'-576'
p1226
aS'-840'
p1227
aS'-1222'
p1228
aa(lp1229
a(lp1230
S'-13'
p1231
aS'-38'
p1232
aS'-71'
p1233
aS'-82'
p1234
aS'-347'
p1235
aS'-568'
p1236
aa(lp1237
a(lp1238
S'-118'
p1239
aS'-151'
p1240
aa(lp1241
S'-8'
p1242
aS'-35'
p1243
aS'-78'
p1244
aS'-81'
p1245
aS'-133'
p1246
aS'-160'
p1247
aS'-225'
p1248
aS'-261'
p1249
aS'-364'
p1250
aS'-375'
p1251
aS'-379'
p1252
aS'-395'
p1253
aS'-396'
p1254
aS'-412'
p1255
aS'-426'
p1256
aS'-452'
p1257
aS'-457'
p1258
aS'-473'
p1259
aS'-577'
p1260
aS'-597'
p1261
aS'-665'
p1262
aS'-672'
p1263
aS'-717'
p1264
aS'-790'
p1265
aS'-1079'
p1266
aS'-1087'
p1267
aS'-1089'
p1268
aS'-1218'
p1269
aS'-1419'
p1270
aa(lp1271
S'-25'
p1272
aS'-248'
p1273
aS'-258'
p1274
aS'-286'
p1275
aS'-289'
p1276
aS'-321'
p1277
aS'-405'
p1278
aS'-411'
p1279
aS'-908'
p1280
aS'-924'
p1281
aS'-975'
p1282
aS'-1009'
p1283
aa(lp1284
S'-92'
p1285
aS'-135'
p1286
aS'-149'
p1287
aS'-325'
p1288
aS'-518'
p1289
aS'-544'
p1290
aS'-556'
p1291
aS'-583'
p1292
aS'-658'
p1293
aS'-744'
p1294
aS'-991'
p1295
aa(lp1296
a(lp1297
S'-182'
p1298
aa(lp1299
S'-748'
p1300
aa(lp1301
S'-327'
p1302
aS'-886'
p1303
aS'-938'
p1304
aa(lp1305
S'-260'
p1306
aS'-303'
p1307
aS'-316'
p1308
aS'-328'
p1309
aS'-347'
p1310
aS'-358'
p1311
aS'-875'
p1312
aS'-886'
p1313
aa(lp1314
S'-209'
p1315
aS'-238'
p1316
aS'-240'
p1317
aS'-385'
p1318
aa(lp1319
S'-151'
p1320
aa(lp1321
S'-508'
p1322
aa(lp1323
a(lp1324
S'-12'
p1325
aS'-243'
p1326
aS'-358'
p1327
aS'-421'
p1328
aS'-477'
p1329
aS'-546'
p1330
aS'-874'
p1331
aS'-929'
p1332
aS'-951'
p1333
aa(lp1334
S'-338'
p1335
aa(lp1336
S'-196'
p1337
aS'-273'
p1338
aS'-274'
p1339
aS'-411'
p1340
aS'-756'
p1341
aa(lp1342
a(lp1343
a(lp1344
S'-64'
p1345
aS'-69'
p1346
aS'-186'
p1347
aS'-190'
p1348
aS'-203'
p1349
aS'-286'
p1350
aS'-300'
p1351
aS'-318'
p1352
aS'-514'
p1353
aS'-690'
p1354
aa(lp1355
a(lp1356
a(lp1357
a(lp1358
S'-280'
p1359
aa(lp1360
S'-121'
p1361
aS'-144'
p1362
aS'-226'
p1363
aS'-235'
p1364
aS'-367'
p1365
aS'-550'
p1366
aS'-732'
p1367
aS'-950'
p1368
aa(lp1369
a(lp1370
S'-29'
p1371
aS'-56'
p1372
aS'-92'
p1373
aS'-118'
p1374
aS'-231'
p1375
aS'-284'
p1376
aS'-385'
p1377
aS'-410'
p1378
aS'-412'
p1379
aS'-628'
p1380
aS'-1044'
p1381
aS'-1135'
p1382
aa(lp1383
a(lp1384
S'-69'
p1385
aS'-283'
p1386
aS'-323'
p1387
aa(lp1388
a(lp1389
S'-184'
p1390
aS'-294'
p1391
aa(lp1392
a(lp1393
a(lp1394
a(lp1395
S'-138'
p1396
aS'-168'
p1397
aS'-214'
p1398
aS'-379'
p1399
aS'-616'
p1400
aS'-649'
p1401
aS'-1263'
p1402
aa(lp1403
S'-245'
p1404
aS'-325'
p1405
aS'-406'
p1406
aS'-443'
p1407
aS'-748'
p1408
aS'-760'
p1409
aS'-984'
p1410
aa(lp1411
S'-120'
p1412
aS'-368'
p1413
aa(lp1414
a(lp1415
S'-288'
p1416
aa(lp1417
a(lp1418
S'-538'
p1419
aa(lp1420
a(lp1421
a(lp1422
S'-271'
p1423
aS'-323'
p1424
aa(lp1425
a(lp1426
S'-107'
p1427
aa(lp1428
S'-245'
p1429
aS'-325'
p1430
aa(lp1431
a(lp1432
S'-3'
p1433
aS'-38'
p1434
aS'-47'
p1435
aS'-63'
p1436
aS'-363'
p1437
aS'-369'
p1438
aS'-388'
p1439
aS'-472'
p1440
aS'-540'
p1441
aS'-579'
p1442
aS'-715'
p1443
aS'-719'
p1444
aS'-743'
p1445
aS'-761'
p1446
aS'-826'
p1447
aS'-981'
p1448
aS'-998'
p1449
aS'-1002'
p1450
aS'-1041'
p1451
aS'-1054'
p1452
aS'-1178'
p1453
aS'-1303'
p1454
aa(lp1455
S'-22'
p1456
aS'-69'
p1457
aS'-70'
p1458
aS'-88'
p1459
aS'-111'
p1460
aS'-120'
p1461
aS'-122'
p1462
aS'-148'
p1463
aS'-173'
p1464
aS'-174'
p1465
aS'-196'
p1466
aS'-210'
p1467
aS'-216'
p1468
aS'-234'
p1469
aS'-241'
p1470
aS'-255'
p1471
aS'-403'
p1472
aS'-476'
p1473
aS'-660'
p1474
aS'-679'
p1475
aS'-710'
p1476
aS'-723'
p1477
aS'-762'
p1478
aS'-821'
p1479
aS'-1074'
p1480
aS'-1165'
p1481
aS'-1267'
p1482
aS'-1478'
p1483
aa(lp1484
S'-237'
p1485
aS'-553'
p1486
aS'-869'
p1487
aa(lp1488
S'-107'
p1489
aS'-130'
p1490
aS'-338'
p1491
aS'-411'
p1492
aS'-476'
p1493
aS'-539'
p1494
aS'-845'
p1495
aa(lp1496
a(lp1497
a(lp1498
a(lp1499
a(lp1500
S'-43'
p1501
aS'-104'
p1502
aS'-375'
p1503
aS'-397'
p1504
aS'-450'
p1505
aS'-540'
p1506
aS'-669'
p1507
aS'-743'
p1508
aS'-759'
p1509
aS'-769'
p1510
aS'-783'
p1511
aS'-796'
p1512
aS'-1042'
p1513
aS'-1090'
p1514
aS'-1213'
p1515
aS'-1228'
p1516
aS'-1239'
p1517
aS'-1253'
p1518
aS'-1274'
p1519
aS'-1407'
p1520
aS'-1413'
p1521
aa(lp1522
S'-278'
p1523
aa(lp1524
a(lp1525
S'-22'
p1526
aS'-44'
p1527
aS'-64'
p1528
aS'-65'
p1529
aS'-70'
p1530
aS'-87'
p1531
aS'-88'
p1532
aS'-122'
p1533
aS'-146'
p1534
aS'-222'
p1535
aS'-393'
p1536
aS'-403'
p1537
aS'-428'
p1538
aS'-532'
p1539
aS'-534'
p1540
aS'-547'
p1541
aS'-554'
p1542
aS'-644'
p1543
aS'-739'
p1544
aS'-854'
p1545
aS'-990'
p1546
aS'-1195'
p1547
aS'-1266'
p1548
aS'-1336'
p1549
aS'-1486'
p1550
aS'-1487'
p1551
aa(lp1552
a(lp1553
S'-308'
p1554
aS'-326'
p1555
aa(lp1556
a(lp1557
a(lp1558
a(lp1559
a(lp1560
S'-107'
p1561
aS'-212'
p1562
aS'-546'
p1563
aS'-824'
p1564
aS'-1047'
p1565
aa(lp1566
S'-252'
p1567
aS'-476'
p1568
aa(lp1569
S'-190'
p1570
aS'-327'
p1571
aS'-688'
p1572
aS'-880'
p1573
aa(lp1574
a(lp1575
S'-180'
p1576
aS'-449'
p1577
aS'-473'
p1578
aa(lp1579
S'-324'
p1580
aS'-375'
p1581
aS'-391'
p1582
aS'-555'
p1583
aS'-974'
p1584
aS'-1215'
p1585
aa(lp1586
a(lp1587
S'-226'
p1588
aS'-405'
p1589
aS'-412'
p1590
aS'-546'
p1591
aS'-550'
p1592
aS'-619'
p1593
aS'-931'
p1594
aS'-1119'
p1595
aa(lp1596
a(lp1597
S'-96'
p1598
aS'-183'
p1599
aa(lp1600
S'-150'
p1601
aS'-240'
p1602
aS'-244'
p1603
aS'-259'
p1604
aS'-294'
p1605
aS'-298'
p1606
aS'-309'
p1607
aS'-455'
p1608
aS'-688'
p1609
aS'-948'
p1610
aa(lp1611
S'-4'
p1612
aS'-27'
p1613
aS'-102'
p1614
aS'-160'
p1615
aS'-195'
p1616
aS'-250'
p1617
aS'-430'
p1618
aS'-574'
p1619
aS'-919'
p1620
aS'-1217'
p1621
aa(lp1622
a(lp1623
S'-19'
p1624
aS'-235'
p1625
aS'-749'
p1626
aS'-1132'
p1627
aS'-1227'
p1628
aa(lp1629
S'-264'
p1630
aa(lp1631
S'-111'
p1632
aS'-273'
p1633
aS'-276'
p1634
aS'-411'
p1635
aS'-423'
p1636
aS'-655'
p1637
aS'-1052'
p1638
aa(lp1639
S'-294'
p1640
aS'-748'
p1641
aa(lp1642
S'-38'
p1643
aS'-63'
p1644
aS'-300'
p1645
aS'-323'
p1646
aS'-325'
p1647
aS'-327'
p1648
aS'-363'
p1649
aS'-391'
p1650
aS'-398'
p1651
aS'-564'
p1652
aS'-583'
p1653
aS'-597'
p1654
aS'-685'
p1655
aS'-871'
p1656
aS'-1086'
p1657
aS'-1090'
p1658
aS'-1217'
p1659
aS'-1230'
p1660
aa(lp1661
S'-259'
p1662
aS'-286'
p1663
aa(lp1664
S'-11'
p1665
aS'-15'
p1666
aS'-56'
p1667
aS'-76'
p1668
aS'-87'
p1669
aS'-179'
p1670
aS'-245'
p1671
aS'-1015'
p1672
aS'-1073'
p1673
aa(lp1674
S'-741'
p1675
aa(lp1676
S'-121'
p1677
aS'-401'
p1678
aS'-687'
p1679
aS'-831'
p1680
aa(lp1681
S'-97'
p1682
aS'-309'
p1683
aa(lp1684
a(lp1685
S'-832'
p1686
aS'-1386'
p1687
aa(lp1688
S'-68'
p1689
aS'-485'
p1690
aa(lp1691
S'-144'
p1692
aS'-157'
p1693
aS'-265'
p1694
aa(lp1695
S'-66'
p1696
aS'-151'
p1697
aS'-1470'
p1698
aa(lp1699
S'-24'
p1700
aS'-56'
p1701
aS'-93'
p1702
aS'-122'
p1703
aS'-173'
p1704
aS'-276'
p1705
aS'-743'
p1706
aS'-747'
p1707
aS'-772'
p1708
aS'-1054'
p1709
aS'-1089'
p1710
aS'-1094'
p1711
aa(lp1712
S'-17'
p1713
aa(lp1714
S'-50'
p1715
aS'-173'
p1716
aS'-183'
p1717
aS'-323'
p1718
aS'-588'
p1719
aS'-678'
p1720
aS'-988'
p1721
aa(lp1722
a(lp1723
S'-105'
p1724
aS'-121'
p1725
aa(lp1726
a(lp1727
S'-118'
p1728
aS'-716'
p1729
aS'-833'
p1730
aS'-1215'
p1731
aa(lp1732
a(lp1733
a(lp1734
S'-243'
p1735
aa(lp1736
S'-877'
p1737
aa(lp1738
S'-2'
p1739
aS'-325'
p1740
aa(lp1741
S'-4'
p1742
aS'-9'
p1743
aS'-44'
p1744
aS'-127'
p1745
aS'-175'
p1746
aS'-180'
p1747
aS'-187'
p1748
aS'-197'
p1749
aS'-481'
p1750
aS'-654'
p1751
aa(lp1752
S'-245'
p1753
aS'-258'
p1754
aS'-260'
p1755
aS'-338'
p1756
aS'-732'
p1757
aa(lp1758
S'-432'
p1759
aS'-586'
p1760
aS'-1135'
p1761
aa(lp1762
a(lp1763
a(lp1764
S'-1'
p1765
aa(lp1766
a(lp1767
S'-180'
p1768
aa(lp1769
S'-69'
p1770
aS'-227'
p1771
aS'-326'
p1772
aS'-338'
p1773
aS'-905'
p1774
aS'-955'
p1775
aa(lp1776
S'-258'
p1777
aa(lp1778
S'-202'
p1779
aS'-368'
p1780
aS'-388'
p1781
aS'-401'
p1782
aS'-407'
p1783
aS'-571'
p1784
aS'-577'
p1785
aS'-734'
p1786
aS'-738'
p1787
aS'-845'
p1788
aS'-864'
p1789
aS'-998'
p1790
aS'-1037'
p1791
aS'-1054'
p1792
aS'-1079'
p1793
aS'-1094'
p1794
aS'-1183'
p1795
aS'-1446'
p1796
aS'-1496'
p1797
aa(lp1798
a(lp1799
S'-294'
p1800
aa(lp1801
a(lp1802
S'-179'
p1803
aa(lp1804
S'-358'
p1805
aa(lp1806
S'-220'
p1807
aS'-282'
p1808
aS'-324'
p1809
aS'-326'
p1810
aS'-544'
p1811
aS'-692'
p1812
aS'-764'
p1813
aS'-866'
p1814
aS'-875'
p1815
aS'-1009'
p1816
aS'-1010'
p1817
aS'-1014'
p1818
aS'-1016'
p1819
aS'-1048'
p1820
aS'-1300'
p1821
aS'-1315'
p1822
aa(lp1823
S'-234'
p1824
aS'-260'
p1825
aS'-358'
p1826
aS'-546'
p1827
aS'-930'
p1828
aS'-951'
p1829
aS'-1047'
p1830
aa(lp1831
a(lp1832
S'-325'
p1833
aS'-332'
p1834
aS'-559'
p1835
aa(lp1836
S'-17'
p1837
aS'-53'
p1838
aS'-91'
p1839
aS'-184'
p1840
aS'-240'
p1841
aS'-276'
p1842
aS'-365'
p1843
aS'-616'
p1844
aS'-727'
p1845
aS'-842'
p1846
aS'-1011'
p1847
aa(lp1848
S'-260'
p1849
aS'-271'
p1850
aS'-294'
p1851
aS'-323'
p1852
aS'-324'
p1853
aS'-363'
p1854
aS'-819'
p1855
aS'-827'
p1856
aS'-831'
p1857
aS'-982'
p1858
aS'-1047'
p1859
aS'-1088'
p1860
aS'-1283'
p1861
aS'-1291'
p1862
aa(lp1863
a(lp1864
a(lp1865
a(lp1866
S'-340'
p1867
aa(lp1868
S'-55'
p1869
aS'-173'
p1870
aa(lp1871
a(lp1872
S'-281'
p1873
aa(lp1874
a(lp1875
S'-294'
p1876
aS'-892'
p1877
aa(lp1878
a(lp1879
S'-127'
p1880
aa(lp1881
a(lp1882
a(lp1883
a(lp1884
S'-748'
p1885
aa(lp1886
S'-5'
p1887
aS'-72'
p1888
aS'-101'
p1889
aS'-159'
p1890
aS'-182'
p1891
aS'-212'
p1892
aS'-226'
p1893
aS'-231'
p1894
aS'-325'
p1895
aS'-333'
p1896
aS'-350'
p1897
aS'-387'
p1898
aS'-537'
p1899
aS'-557'
p1900
aS'-631'
p1901
aS'-678'
p1902
aS'-682'
p1903
aS'-737'
p1904
aS'-751'
p1905
aS'-854'
p1906
aS'-959'
p1907
aS'-979'
p1908
aS'-1214'
p1909
aS'-1512'
p1910
aa(lp1911
a(lp1912
S'-294'
p1913
aS'-309'
p1914
aS'-352'
p1915
aS'-894'
p1916
aS'-948'
p1917
aa(lp1918
S'-234'
p1919
aa(lp1920
a(lp1921
S'-413'
p1922
aS'-447'
p1923
aa(lp1924
a(lp1925
S'-294'
p1926
aS'-390'
p1927
aa(lp1928
S'-175'
p1929
aa(lp1930
a(lp1931
S'-82'
p1932
aS'-135'
p1933
aS'-1087'
p1934
aS'-1113'
p1935
aa(lp1936
S'-7'
p1937
aS'-9'
p1938
aS'-68'
p1939
aS'-116'
p1940
aS'-168'
p1941
aS'-179'
p1942
aS'-196'
p1943
aS'-240'
p1944
aS'-247'
p1945
aS'-248'
p1946
aS'-284'
p1947
aS'-289'
p1948
aS'-369'
p1949
aS'-457'
p1950
aS'-463'
p1951
aS'-475'
p1952
aS'-544'
p1953
aS'-642'
p1954
aS'-713'
p1955
aS'-743'
p1956
aS'-823'
p1957
aS'-928'
p1958
aS'-1014'
p1959
aS'-1028'
p1960
aS'-1150'
p1961
aS'-1215'
p1962
aa(lp1963
a(lp1964
a(lp1965
a(lp1966
S'-254'
p1967
aS'-926'
p1968
aa(lp1969
S'-398'
p1970
aa(lp1971
a(lp1972
S'-118'
p1973
aS'-120'
p1974
aa(lp1975
S'-50'
p1976
aa(lp1977
a(lp1978
a(lp1979
S'-29'
p1980
aS'-42'
p1981
aS'-50'
p1982
aS'-53'
p1983
aS'-82'
p1984
aS'-133'
p1985
aS'-181'
p1986
aS'-186'
p1987
aS'-204'
p1988
aS'-219'
p1989
aS'-234'
p1990
aS'-378'
p1991
aS'-385'
p1992
aS'-444'
p1993
aS'-451'
p1994
aS'-727'
p1995
aS'-739'
p1996
aS'-767'
p1997
aS'-871'
p1998
aS'-1135'
p1999
aa(lp2000
a(lp2001
S'-27'
p2002
aS'-29'
p2003
aS'-152'
p2004
aS'-161'
p2005
aS'-241'
p2006
aS'-441'
p2007
aS'-458'
p2008
aS'-477'
p2009
aS'-564'
p2010
aS'-619'
p2011
aS'-676'
p2012
aS'-692'
p2013
aS'-731'
p2014
aS'-746'
p2015
aS'-769'
p2016
aS'-790'
p2017
aS'-1134'
p2018
aa(lp2019
a(lp2020
S'-763'
p2021
aa(lp2022
a(lp2023
S'-264'
p2024
aa(lp2025
S'-249'
p2026
aS'-260'
p2027
aS'-271'
p2028
aS'-298'
p2029
aS'-324'
p2030
aS'-1258'
p2031
aa(lp2032
S'-17'
p2033
aS'-40'
p2034
aS'-100'
p2035
aS'-135'
p2036
aS'-789'
p2037
aS'-831'
p2038
aS'-890'
p2039
aa(lp2040
S'-802'
p2041
aa(lp2042
a(lp2043
a(lp2044
S'-243'
p2045
aS'-261'
p2046
aS'-322'
p2047
aS'-457'
p2048
aS'-680'
p2049
aS'-688'
p2050
aS'-878'
p2051
aS'-894'
p2052
aS'-988'
p2053
aS'-989'
p2054
aS'-991'
p2055
aa(lp2056
a(lp2057
S'-238'
p2058
aS'-323'
p2059
aS'-551'
p2060
aS'-616'
p2061
aS'-760'
p2062
aa(lp2063
a(lp2064
S'-127'
p2065
aS'-135'
p2066
aS'-151'
p2067
aS'-154'
p2068
aS'-225'
p2069
aS'-235'
p2070
aS'-294'
p2071
aS'-342'
p2072
aS'-751'
p2073
aS'-892'
p2074
aa(lp2075
S'-245'
p2076
aS'-410'
p2077
aa(lp2078
S'-240'
p2079
aS'-1012'
p2080
aa(lp2081
S'-286'
p2082
aS'-289'
p2083
aa(lp2084
S'-2'
p2085
aS'-27'
p2086
aS'-32'
p2087
aS'-33'
p2088
aS'-37'
p2089
aS'-39'
p2090
aS'-41'
p2091
aS'-42'
p2092
aS'-43'
p2093
aS'-46'
p2094
aS'-48'
p2095
aS'-49'
p2096
aS'-51'
p2097
aS'-52'
p2098
aS'-55'
p2099
aS'-57'
p2100
aS'-58'
p2101
aS'-62'
p2102
aS'-65'
p2103
aS'-68'
p2104
aS'-77'
p2105
aS'-80'
p2106
aS'-83'
p2107
aS'-86'
p2108
aS'-87'
p2109
aS'-89'
p2110
aS'-92'
p2111
aS'-110'
p2112
aS'-161'
p2113
aS'-168'
p2114
aS'-175'
p2115
aS'-176'
p2116
aS'-177'
p2117
aS'-179'
p2118
aS'-182'
p2119
aS'-183'
p2120
aS'-184'
p2121
aS'-188'
p2122
aS'-194'
p2123
aS'-196'
p2124
aS'-199'
p2125
aS'-201'
p2126
aS'-211'
p2127
aS'-212'
p2128
aS'-217'
p2129
aS'-227'
p2130
aS'-228'
p2131
aS'-229'
p2132
aS'-233'
p2133
aS'-241'
p2134
aS'-364'
p2135
aS'-365'
p2136
aS'-367'
p2137
aS'-372'
p2138
aS'-375'
p2139
aS'-377'
p2140
aS'-379'
p2141
aS'-381'
p2142
aS'-382'
p2143
aS'-383'
p2144
aS'-385'
p2145
aS'-387'
p2146
aS'-391'
p2147
aS'-396'
p2148
aS'-398'
p2149
aS'-399'
p2150
aS'-401'
p2151
aS'-414'
p2152
aS'-428'
p2153
aS'-430'
p2154
aS'-435'
p2155
aS'-436'
p2156
aS'-437'
p2157
aS'-438'
p2158
aS'-439'
p2159
aS'-440'
p2160
aS'-441'
p2161
aS'-442'
p2162
aS'-446'
p2163
aS'-449'
p2164
aS'-450'
p2165
aS'-464'
p2166
aS'-469'
p2167
aS'-470'
p2168
aS'-509'
p2169
aS'-510'
p2170
aS'-513'
p2171
aS'-514'
p2172
aS'-515'
p2173
aS'-516'
p2174
aS'-518'
p2175
aS'-522'
p2176
aS'-524'
p2177
aS'-526'
p2178
aS'-528'
p2179
aS'-530'
p2180
aS'-537'
p2181
aS'-540'
p2182
aS'-541'
p2183
aS'-545'
p2184
aS'-549'
p2185
aS'-551'
p2186
aS'-553'
p2187
aS'-554'
p2188
aS'-555'
p2189
aS'-556'
p2190
aS'-558'
p2191
aS'-561'
p2192
aS'-562'
p2193
aS'-563'
p2194
aS'-564'
p2195
aS'-566'
p2196
aS'-569'
p2197
aS'-570'
p2198
aS'-574'
p2199
aS'-576'
p2200
aS'-578'
p2201
aS'-579'
p2202
aS'-580'
p2203
aS'-583'
p2204
aS'-585'
p2205
aS'-641'
p2206
aS'-643'
p2207
aS'-645'
p2208
aS'-647'
p2209
aS'-648'
p2210
aS'-649'
p2211
aS'-650'
p2212
aS'-652'
p2213
aS'-656'
p2214
aS'-662'
p2215
aS'-664'
p2216
aS'-665'
p2217
aS'-667'
p2218
aS'-668'
p2219
aS'-669'
p2220
aS'-670'
p2221
aS'-672'
p2222
aS'-674'
p2223
aS'-675'
p2224
aS'-679'
p2225
aS'-694'
p2226
aS'-695'
p2227
aS'-697'
p2228
aS'-698'
p2229
aS'-700'
p2230
aS'-702'
p2231
aS'-708'
p2232
aS'-709'
p2233
aS'-712'
p2234
aS'-714'
p2235
aS'-715'
p2236
aS'-716'
p2237
aS'-719'
p2238
aS'-720'
p2239
aS'-721'
p2240
aS'-722'
p2241
aS'-723'
p2242
aS'-724'
p2243
aS'-725'
p2244
aS'-726'
p2245
aS'-727'
p2246
aS'-730'
p2247
aS'-733'
p2248
aS'-737'
p2249
aS'-738'
p2250
aS'-745'
p2251
aS'-746'
p2252
aS'-759'
p2253
aS'-761'
p2254
aS'-765'
p2255
aS'-769'
p2256
aS'-770'
p2257
aS'-771'
p2258
aS'-772'
p2259
aS'-773'
p2260
aS'-774'
p2261
aS'-775'
p2262
aS'-777'
p2263
aS'-778'
p2264
aS'-779'
p2265
aS'-782'
p2266
aS'-784'
p2267
aS'-785'
p2268
aS'-786'
p2269
aS'-788'
p2270
aS'-789'
p2271
aS'-790'
p2272
aS'-791'
p2273
aS'-793'
p2274
aS'-798'
p2275
aS'-802'
p2276
aS'-806'
p2277
aS'-807'
p2278
aS'-808'
p2279
aS'-810'
p2280
aS'-816'
p2281
aS'-849'
p2282
aS'-853'
p2283
aS'-854'
p2284
aS'-856'
p2285
aS'-858'
p2286
aS'-859'
p2287
aS'-860'
p2288
aS'-861'
p2289
aS'-940'
p2290
aS'-941'
p2291
aS'-942'
p2292
aS'-947'
p2293
aS'-959'
p2294
aS'-960'
p2295
aS'-964'
p2296
aS'-970'
p2297
aS'-972'
p2298
aS'-996'
p2299
aS'-997'
p2300
aS'-999'
p2301
aS'-1004'
p2302
aS'-1006'
p2303
aS'-1027'
p2304
aS'-1029'
p2305
aS'-1030'
p2306
aS'-1036'
p2307
aS'-1043'
p2308
aS'-1058'
p2309
aS'-1065'
p2310
aS'-1069'
p2311
aS'-1070'
p2312
aS'-1072'
p2313
aS'-1100'
p2314
aS'-1107'
p2315
aS'-1108'
p2316
aS'-1110'
p2317
aS'-1111'
p2318
aS'-1113'
p2319
aS'-1118'
p2320
aS'-1139'
p2321
aS'-1148'
p2322
aS'-1166'
p2323
aS'-1167'
p2324
aS'-1168'
p2325
aS'-1177'
p2326
aS'-1178'
p2327
aS'-1179'
p2328
aS'-1180'
p2329
aS'-1182'
p2330
aS'-1184'
p2331
aS'-1192'
p2332
aS'-1194'
p2333
aS'-1206'
p2334
aS'-1208'
p2335
aS'-1221'
p2336
aS'-1222'
p2337
aS'-1224'
p2338
aS'-1225'
p2339
aS'-1228'
p2340
aS'-1229'
p2341
aS'-1230'
p2342
aS'-1231'
p2343
aS'-1232'
p2344
aS'-1239'
p2345
aS'-1246'
p2346
aS'-1247'
p2347
aS'-1249'
p2348
aS'-1250'
p2349
aS'-1260'
p2350
aS'-1261'
p2351
aS'-1267'
p2352
aS'-1268'
p2353
aS'-1274'
p2354
aS'-1297'
p2355
aS'-1305'
p2356
aS'-1306'
p2357
aS'-1307'
p2358
aS'-1308'
p2359
aS'-1311'
p2360
aS'-1400'
p2361
aS'-1404'
p2362
aS'-1407'
p2363
aS'-1421'
p2364
aS'-1423'
p2365
aS'-1424'
p2366
aS'-1425'
p2367
aS'-1435'
p2368
aS'-1437'
p2369
aS'-1438'
p2370
aS'-1439'
p2371
aS'-1441'
p2372
aS'-1442'
p2373
aS'-1445'
p2374
aS'-1464'
p2375
aS'-1468'
p2376
aS'-1474'
p2377
aS'-1475'
p2378
aS'-1478'
p2379
aS'-1479'
p2380
aS'-1484'
p2381
aS'-1487'
p2382
aS'-1488'
p2383
aS'-1509'
p2384
aS'-1517'
p2385
aS'-1530'
p2386
aS'-1539'
p2387
aS'-1548'
p2388
aS'-1551'
p2389
aS'-1552'
p2390
aS'-1557'
p2391
aS'-1559'
p2392
aS'-1561'
p2393
aS'-1564'
p2394
aS'-1566'
p2395
aS'-1567'
p2396
aS'-1568'
p2397
aS'-1574'
p2398
aS'-1585'
p2399
aS'-1587'
p2400
aa(lp2401
S'-25'
p2402
aS'-143'
p2403
aS'-144'
p2404
aS'-206'
p2405
aS'-209'
p2406
aS'-237'
p2407
aS'-284'
p2408
aS'-468'
p2409
aS'-502'
p2410
aS'-514'
p2411
aS'-563'
p2412
aS'-610'
p2413
aS'-769'
p2414
aa(lp2415
S'-40'
p2416
aS'-67'
p2417
aa(lp2418
a(lp2419
S'-264'
p2420
aS'-266'
p2421
aS'-288'
p2422
aS'-289'
p2423
aS'-680'
p2424
aS'-879'
p2425
aS'-890'
p2426
aS'-1295'
p2427
aS'-1392'
p2428
aS'-1393'
p2429
aa(lp2430
S'-289'
p2431
aS'-347'
p2432
aa(lp2433
a(lp2434
a(lp2435
S'-260'
p2436
aa(lp2437
S'-678'
p2438
aa(lp2439
S'-243'
p2440
aa(lp2441
S'-43'
p2442
aS'-86'
p2443
aS'-159'
p2444
aS'-225'
p2445
aS'-240'
p2446
aS'-542'
p2447
aS'-585'
p2448
aS'-874'
p2449
aS'-1077'
p2450
aS'-1336'
p2451
aS'-1337'
p2452
aa(lp2453
S'-212'
p2454
aS'-324'
p2455
aS'-555'
p2456
aS'-685'
p2457
aS'-767'
p2458
aS'-1288'
p2459
aa(lp2460
S'-344'
p2461
aa(lp2462
a(lp2463
a(lp2464
S'-173'
p2465
aa(lp2466
S'-299'
p2467
aa(lp2468
S'-328'
p2469
aa(lp2470
S'-1'
p2471
aS'-115'
p2472
aS'-288'
p2473
aS'-689'
p2474
aS'-969'
p2475
aa(lp2476
S'-5'
p2477
aS'-118'
p2478
aS'-217'
p2479
aS'-244'
p2480
aS'-286'
p2481
aS'-289'
p2482
aS'-313'
p2483
aS'-319'
p2484
aS'-363'
p2485
aS'-398'
p2486
aS'-562'
p2487
aS'-597'
p2488
aS'-678'
p2489
aS'-827'
p2490
aS'-841'
p2491
aS'-976'
p2492
aS'-1013'
p2493
aS'-1110'
p2494
aa(lp2495
S'-754'
p2496
aa(lp2497
a(lp2498
S'-988'
p2499
aa(lp2500
S'-53'
p2501
aS'-140'
p2502
aS'-457'
p2503
aS'-500'
p2504
aS'-1438'
p2505
aa(lp2506
S'-253'
p2507
aS'-276'
p2508
aa(lp2509
a(lp2510
S'-24'
p2511
aS'-250'
p2512
aa(lp2513
S'-323'
p2514
aS'-457'
p2515
aa(lp2516
S'-7'
p2517
aS'-9'
p2518
aS'-347'
p2519
aa(lp2520
S'-108'
p2521
aS'-162'
p2522
aS'-573'
p2523
aS'-672'
p2524
aS'-760'
p2525
aS'-820'
p2526
aS'-890'
p2527
aS'-1185'
p2528
aS'-1411'
p2529
aa(lp2530
S'-132'
p2531
aS'-447'
p2532
aa(lp2533
S'-11'
p2534
aS'-129'
p2535
aS'-203'
p2536
aS'-226'
p2537
aS'-253'
p2538
aS'-283'
p2539
aS'-581'
p2540
aS'-583'
p2541
aS'-642'
p2542
aS'-702'
p2543
aS'-737'
p2544
aS'-1090'
p2545
aa(lp2546
a(lp2547
a(lp2548
S'-243'
p2549
aS'-323'
p2550
aS'-988'
p2551
aa(lp2552
a(lp2553
S'-14'
p2554
aS'-871'
p2555
aS'-988'
p2556
aa(lp2557
S'-260'
p2558
aS'-358'
p2559
aS'-948'
p2560
aa(lp2561
S'-748'
p2562
aa(lp2563
S'-7'
p2564
aS'-55'
p2565
aS'-93'
p2566
aS'-117'
p2567
aS'-123'
p2568
aS'-246'
p2569
aS'-248'
p2570
aS'-268'
p2571
aS'-271'
p2572
aS'-289'
p2573
aS'-295'
p2574
aS'-300'
p2575
aS'-302'
p2576
aS'-310'
p2577
aS'-324'
p2578
aS'-325'
p2579
aS'-343'
p2580
aS'-628'
p2581
aS'-689'
p2582
aS'-742'
p2583
aS'-748'
p2584
aS'-752'
p2585
aS'-881'
p2586
aS'-908'
p2587
aS'-994'
p2588
aS'-1012'
p2589
aS'-1097'
p2590
aS'-1252'
p2591
aS'-1534'
p2592
aS'-1601'
p2593
aa(lp2594
S'-294'
p2595
aa(lp2596
S'-15'
p2597
aS'-274'
p2598
aS'-748'
p2599
aa(lp2600
S'-288'
p2601
aS'-301'
p2602
aS'-316'
p2603
aS'-1294'
p2604
aa(lp2605
S'-105'
p2606
aS'-118'
p2607
aS'-120'
p2608
aS'-122'
p2609
aa(lp2610
S'-214'
p2611
aS'-679'
p2612
aS'-700'
p2613
aS'-1030'
p2614
aS'-1184'
p2615
aa(lp2616
S'-262'
p2617
aS'-286'
p2618
aS'-289'
p2619
aS'-299'
p2620
aS'-358'
p2621
aS'-683'
p2622
aS'-995'
p2623
aa(lp2624
S'-186'
p2625
aS'-201'
p2626
aS'-276'
p2627
aS'-455'
p2628
aS'-456'
p2629
aS'-458'
p2630
aS'-780'
p2631
aS'-1013'
p2632
aS'-1057'
p2633
aS'-1089'
p2634
aS'-1403'
p2635
aS'-1410'
p2636
aS'-1534'
p2637
aa(lp2638
S'-120'
p2639
aS'-826'
p2640
aS'-1032'
p2641
aS'-1079'
p2642
aa(lp2643
S'-11'
p2644
aS'-76'
p2645
aS'-81'
p2646
aS'-89'
p2647
aS'-98'
p2648
aS'-260'
p2649
aS'-875'
p2650
aa(lp2651
a(lp2652
S'-405'
p2653
aa(lp2654
S'-368'
p2655
aS'-871'
p2656
aS'-948'
p2657
aa(lp2658
S'-25'
p2659
aS'-57'
p2660
aS'-121'
p2661
aS'-250'
p2662
aS'-410'
p2663
aS'-717'
p2664
aS'-960'
p2665
aS'-1335'
p2666
aa(lp2667
S'-100'
p2668
aS'-235'
p2669
aS'-477'
p2670
aS'-546'
p2671
aS'-1014'
p2672
aa(lp2673
a(lp2674
S'-682'
p2675
aS'-748'
p2676
aa(lp2677
S'-358'
p2678
aa(lp2679
S'-243'
p2680
aS'-319'
p2681
aS'-347'
p2682
aS'-593'
p2683
aS'-930'
p2684
aS'-985'
p2685
aS'-1117'
p2686
aS'-1164'
p2687
aa(lp2688
a(lp2689
a(lp2690
S'-2'
p2691
aS'-308'
p2692
aS'-324'
p2693
aS'-682'
p2694
aS'-898'
p2695
aa(lp2696
a(lp2697
a(lp2698
a(lp2699
a(lp2700
S'-432'
p2701
aS'-588'
p2702
aS'-596'
p2703
aS'-627'
p2704
aa(lp2705
S'-548'
p2706
aS'-584'
p2707
aS'-758'
p2708
aa(lp2709
a(lp2710
S'-259'
p2711
aS'-756'
p2712
aS'-1028'
p2713
aa(lp2714
S'-258'
p2715
aS'-303'
p2716
aa(lp2717
S'-585'
p2718
aS'-1037'
p2719
aa(lp2720
a(lp2721
S'-7'
p2722
aS'-68'
p2723
aS'-77'
p2724
aS'-350'
p2725
aS'-743'
p2726
aS'-866'
p2727
aS'-1270'
p2728
aa(lp2729
S'-71'
p2730
aS'-122'
p2731
aS'-143'
p2732
aS'-179'
p2733
aS'-295'
p2734
aS'-324'
p2735
aS'-325'
p2736
aS'-358'
p2737
aS'-472'
p2738
aS'-475'
p2739
aS'-588'
p2740
aS'-739'
p2741
aS'-840'
p2742
aS'-986'
p2743
aS'-1013'
p2744
aS'-1028'
p2745
aa(lp2746
S'-249'
p2747
aS'-294'
p2748
aa(lp2749
a(lp2750
a(lp2751
S'-68'
p2752
aa(lp2753
S'-9'
p2754
aS'-24'
p2755
aa(lp2756
S'-294'
p2757
aS'-345'
p2758
aa(lp2759
S'-250'
p2760
aS'-262'
p2761
aS'-299'
p2762
aS'-306'
p2763
aS'-678'
p2764
aa(lp2765
S'-25'
p2766
aS'-248'
p2767
aS'-252'
p2768
aS'-340'
p2769
aS'-412'
p2770
aS'-689'
p2771
aS'-823'
p2772
aS'-978'
p2773
aS'-1314'
p2774
aa(lp2775
S'-11'
p2776
aS'-259'
p2777
aS'-286'
p2778
aS'-289'
p2779
aS'-323'
p2780
aS'-890'
p2781
aa(lp2782
a(lp2783
S'-15'
p2784
aS'-117'
p2785
aS'-151'
p2786
aS'-237'
p2787
aS'-255'
p2788
aS'-273'
p2789
aS'-289'
p2790
aS'-596'
p2791
aS'-764'
p2792
aS'-993'
p2793
aa(lp2794
S'-319'
p2795
aa(lp2796
S'-772'
p2797
aa(lp2798
S'-156'
p2799
aS'-260'
p2800
aS'-271'
p2801
aS'-275'
p2802
aS'-687'
p2803
aS'-876'
p2804
aS'-881'
p2805
aS'-1013'
p2806
aa(lp2807
S'-289'
p2808
aS'-748'
p2809
aa(lp2810
S'-143'
p2811
aS'-419'
p2812
aS'-421'
p2813
aS'-568'
p2814
aS'-1419'
p2815
aa(lp2816
S'-88'
p2817
aS'-97'
p2818
aS'-136'
p2819
aS'-227'
p2820
aS'-228'
p2821
aS'-378'
p2822
aS'-417'
p2823
aS'-496'
p2824
aS'-1444'
p2825
aa(lp2826
S'-2'
p2827
aS'-122'
p2828
aS'-242'
p2829
aS'-412'
p2830
aS'-440'
p2831
aa(lp2832
S'-772'
p2833
aa(lp2834
S'-539'
p2835
aa(lp2836
S'-215'
p2837
aS'-275'
p2838
aS'-286'
p2839
aS'-568'
p2840
aS'-584'
p2841
aS'-721'
p2842
aS'-996'
p2843
aS'-1163'
p2844
aa(lp2845
a(lp2846
S'-301'
p2847
aa(lp2848
S'-452'
p2849
aS'-463'
p2850
aS'-640'
p2851
aS'-739'
p2852
aS'-753'
p2853
aS'-840'
p2854
aa(lp2855
S'-122'
p2856
aS'-179'
p2857
aS'-240'
p2858
aS'-1093'
p2859
aa(lp2860
S'-56'
p2861
aS'-127'
p2862
aS'-187'
p2863
aS'-258'
p2864
aS'-748'
p2865
aS'-989'
p2866
aa(lp2867
S'-81'
p2868
aS'-324'
p2869
aS'-475'
p2870
aS'-676'
p2871
aS'-772'
p2872
aS'-930'
p2873
aa(lp2874
S'-352'
p2875
aa(lp2876
S'-219'
p2877
aa(lp2878
S'-310'
p2879
aS'-328'
p2880
aS'-345'
p2881
aS'-754'
p2882
aS'-879'
p2883
aa(lp2884
S'-324'
p2885
aS'-325'
p2886
aa(lp2887
a(lp2888
a(lp2889
a(lp2890
a(lp2891
a(lp2892
a(lp2893
S'-105'
p2894
aS'-237'
p2895
aS'-294'
p2896
aS'-1016'
p2897
aa(lp2898
a(lp2899
S'-243'
p2900
aS'-259'
p2901
aS'-324'
p2902
aS'-325'
p2903
aS'-682'
p2904
aa(lp2905
a(lp2906
S'-827'
p2907
aS'-1013'
p2908
aS'-1059'
p2909
aa(lp2910
a(lp2911
a(lp2912
S'-81'
p2913
aS'-151'
p2914
aS'-184'
p2915
aS'-235'
p2916
aS'-419'
p2917
aS'-432'
p2918
aS'-584'
p2919
aS'-640'
p2920
aS'-781'
p2921
aS'-1065'
p2922
aa(lp2923
S'-255'
p2924
aa(lp2925
S'-243'
p2926
aS'-260'
p2927
aS'-678'
p2928
aS'-748'
p2929
aa(lp2930
S'-878'
p2931
aa(lp2932
a(lp2933
S'-340'
p2934
aa(lp2935
a(lp2936
S'-259'
p2937
aS'-288'
p2938
aS'-338'
p2939
aS'-688'
p2940
aS'-908'
p2941
aa(lp2942
S'-1502'
p2943
aa(lp2944
S'-47'
p2945
aS'-53'
p2946
aS'-120'
p2947
aS'-122'
p2948
aS'-176'
p2949
aS'-240'
p2950
aS'-284'
p2951
aS'-382'
p2952
aS'-412'
p2953
aS'-475'
p2954
aS'-554'
p2955
aS'-824'
p2956
aS'-1001'
p2957
aS'-1177'
p2958
aS'-1291'
p2959
aa(lp2960
S'-93'
p2961
aa(lp2962
a(lp2963
a(lp2964
S'-24'
p2965
aS'-95'
p2966
aS'-109'
p2967
aS'-121'
p2968
aS'-143'
p2969
aS'-235'
p2970
aS'-243'
p2971
aS'-259'
p2972
aS'-281'
p2973
aS'-289'
p2974
aS'-294'
p2975
aS'-300'
p2976
aS'-314'
p2977
aS'-322'
p2978
aS'-323'
p2979
aS'-325'
p2980
aS'-338'
p2981
aS'-349'
p2982
aS'-352'
p2983
aS'-455'
p2984
aS'-457'
p2985
aS'-539'
p2986
aS'-547'
p2987
aS'-588'
p2988
aS'-678'
p2989
aS'-681'
p2990
aS'-682'
p2991
aS'-687'
p2992
aS'-688'
p2993
aS'-689'
p2994
aS'-875'
p2995
aS'-890'
p2996
aS'-894'
p2997
aS'-901'
p2998
aS'-928'
p2999
aS'-948'
p3000
aS'-988'
p3001
aS'-1025'
p3002
aS'-1065'
p3003
aS'-1105'
p3004
aS'-1129'
p3005
aS'-1163'
p3006
aS'-1420'
p3007
aa(lp3008
S'-42'
p3009
aS'-276'
p3010
aS'-289'
p3011
aa(lp3012
a(lp3013
a(lp3014
S'-235'
p3015
aa(lp3016
a(lp3017
a(lp3018
S'-259'
p3019
aa(lp3020
S'-67'
p3021
aa(lp3022
S'-294'
p3023
aS'-457'
p3024
aS'-458'
p3025
aa(lp3026
S'-294'
p3027
aa(lp3028
S'-9'
p3029
aS'-14'
p3030
aS'-254'
p3031
aS'-286'
p3032
aS'-305'
p3033
aS'-340'
p3034
aS'-344'
p3035
aS'-345'
p3036
aS'-898'
p3037
aS'-991'
p3038
aa(lp3039
a(lp3040
a(lp3041
S'-13'
p3042
aS'-25'
p3043
aS'-85'
p3044
aS'-91'
p3045
aS'-184'
p3046
aS'-423'
p3047
aS'-455'
p3048
aS'-685'
p3049
aS'-708'
p3050
aS'-1304'
p3051
aa(lp3052
a(lp3053
a(lp3054
S'-21'
p3055
aS'-770'
p3056
aa(lp3057
a(lp3058
S'-243'
p3059
aS'-988'
p3060
aa(lp3061
a(lp3062
a(lp3063
S'-22'
p3064
aS'-660'
p3065
aa(lp3066
a(lp3067
S'-69'
p3068
aS'-77'
p3069
aS'-96'
p3070
aS'-159'
p3071
aS'-219'
p3072
aS'-226'
p3073
aS'-233'
p3074
aS'-243'
p3075
aS'-284'
p3076
aS'-356'
p3077
aS'-371'
p3078
aS'-433'
p3079
aS'-468'
p3080
aS'-531'
p3081
aS'-539'
p3082
aS'-559'
p3083
aS'-636'
p3084
aS'-890'
p3085
aS'-895'
p3086
aS'-1059'
p3087
aa(lp3088
S'-56'
p3089
aS'-66'
p3090
aS'-89'
p3091
aS'-114'
p3092
aS'-229'
p3093
aS'-230'
p3094
aS'-357'
p3095
aS'-514'
p3096
aS'-806'
p3097
aa(lp3098
a(lp3099
a(lp3100
a(lp3101
S'-289'
p3102
aa(lp3103
S'-50'
p3104
aS'-100'
p3105
aS'-181'
p3106
aa(lp3107
S'-59'
p3108
aS'-301'
p3109
aS'-512'
p3110
aS'-772'
p3111
aS'-855'
p3112
aS'-988'
p3113
aa(lp3114
S'-325'
p3115
aa(lp3116
S'-245'
p3117
aS'-289'
p3118
aS'-326'
p3119
aa(lp3120
a(lp3121
a(lp3122
a(lp3123
S'-321'
p3124
aS'-331'
p3125
aS'-340'
p3126
aa(lp3127
S'-294'
p3128
aS'-531'
p3129
aS'-963'
p3130
aa(lp3131
a(lp3132
S'-1336'
p3133
aa(lp3134
S'-258'
p3135
aS'-324'
p3136
aS'-325'
p3137
aS'-355'
p3138
aa(lp3139
S'-877'
p3140
aa(lp3141
a(lp3142
a(lp3143
S'-294'
p3144
aS'-455'
p3145
aS'-948'
p3146
aS'-988'
p3147
aa(lp3148
a(lp3149
a(lp3150
a(lp3151
a(lp3152
S'-245'
p3153
aS'-328'
p3154
aS'-342'
p3155
aS'-680'
p3156
aS'-689'
p3157
aS'-748'
p3158
aS'-875'
p3159
aS'-890'
p3160
aa(lp3161
S'-98'
p3162
aS'-100'
p3163
aS'-202'
p3164
aS'-230'
p3165
aS'-880'
p3166
aa(lp3167
S'-268'
p3168
aS'-307'
p3169
aS'-324'
p3170
aS'-326'
p3171
aS'-334'
p3172
aS'-336'
p3173
aS'-340'
p3174
aS'-995'
p3175
aa(lp3176
a(lp3177
a(lp3178
S'-222'
p3179
aS'-243'
p3180
aS'-245'
p3181
aS'-253'
p3182
aS'-261'
p3183
aS'-263'
p3184
aS'-266'
p3185
aS'-292'
p3186
aS'-299'
p3187
aS'-301'
p3188
aS'-322'
p3189
aS'-323'
p3190
aS'-328'
p3191
aS'-336'
p3192
aS'-358'
p3193
aS'-409'
p3194
aS'-457'
p3195
aS'-472'
p3196
aS'-619'
p3197
aS'-680'
p3198
aS'-681'
p3199
aS'-683'
p3200
aS'-688'
p3201
aS'-823'
p3202
aS'-825'
p3203
aS'-876'
p3204
aS'-881'
p3205
aS'-890'
p3206
aS'-892'
p3207
aS'-893'
p3208
aS'-931'
p3209
aS'-984'
p3210
aS'-988'
p3211
aS'-1023'
p3212
aS'-1025'
p3213
aS'-1047'
p3214
aS'-1079'
p3215
aS'-1258'
p3216
aS'-1265'
p3217
aS'-1276'
p3218
aS'-1319'
p3219
aS'-1609'
p3220
aS'-1620'
p3221
aa(lp3222
S'-40'
p3223
aS'-122'
p3224
aS'-276'
p3225
aS'-1014'
p3226
aa(lp3227
a(lp3228
S'-678'
p3229
aa(lp3230
a(lp3231
S'-326'
p3232
aS'-678'
p3233
aS'-988'
p3234
aa(lp3235
a(lp3236
S'-260'
p3237
aa(lp3238
S'-541'
p3239
aa(lp3240
S'-15'
p3241
aS'-71'
p3242
aS'-118'
p3243
aS'-123'
p3244
aS'-125'
p3245
aS'-225'
p3246
aS'-234'
p3247
aS'-259'
p3248
aS'-287'
p3249
aS'-288'
p3250
aS'-294'
p3251
aS'-405'
p3252
aS'-421'
p3253
aS'-472'
p3254
aS'-476'
p3255
aS'-623'
p3256
aS'-743'
p3257
aS'-820'
p3258
aS'-834'
p3259
aS'-864'
p3260
aS'-928'
p3261
aS'-934'
p3262
aS'-1047'
p3263
aS'-1296'
p3264
aa(lp3265
a(lp3266
S'-273'
p3267
aa(lp3268
a(lp3269
S'-143'
p3270
aS'-238'
p3271
aS'-678'
p3272
aa(lp3273
S'-108'
p3274
aS'-225'
p3275
aa(lp3276
a(lp3277
S'-50'
p3278
aS'-126'
p3279
aS'-157'
p3280
aS'-163'
p3281
aS'-168'
p3282
aS'-172'
p3283
aS'-195'
p3284
aS'-199'
p3285
aS'-300'
p3286
aS'-301'
p3287
aS'-310'
p3288
aS'-418'
p3289
aS'-509'
p3290
aS'-886'
p3291
aS'-1183'
p3292
aa(lp3293
S'-147'
p3294
aS'-259'
p3295
aS'-319'
p3296
aS'-352'
p3297
aS'-538'
p3298
aS'-878'
p3299
aS'-908'
p3300
aa(lp3301
S'-204'
p3302
aS'-271'
p3303
aS'-294'
p3304
aS'-352'
p3305
aa(lp3306
a(lp3307
a(lp3308
a(lp3309
S'-25'
p3310
aS'-546'
p3311
aa(lp3312
S'-259'
p3313
aS'-678'
p3314
aS'-683'
p3315
aS'-988'
p3316
aS'-1128'
p3317
aa(lp3318
a(lp3319
S'-56'
p3320
aS'-132'
p3321
aS'-170'
p3322
aS'-174'
p3323
aS'-184'
p3324
aS'-269'
p3325
aS'-288'
p3326
aS'-294'
p3327
aS'-313'
p3328
aS'-345'
p3329
aS'-423'
p3330
aS'-475'
p3331
aS'-496'
p3332
aS'-547'
p3333
aS'-854'
p3334
aS'-1316'
p3335
aS'-1612'
p3336
aa(lp3337
S'-124'
p3338
aS'-238'
p3339
aS'-679'
p3340
aS'-962'
p3341
aS'-1071'
p3342
aa(lp3343
S'-55'
p3344
aS'-294'
p3345
aS'-328'
p3346
aS'-515'
p3347
aa(lp3348
S'-100'
p3349
aa(lp3350
S'-63'
p3351
aS'-299'
p3352
aS'-401'
p3353
aS'-451'
p3354
aS'-795'
p3355
aS'-1036'
p3356
aa(lp3357
S'-118'
p3358
aS'-120'
p3359
aS'-121'
p3360
aS'-252'
p3361
aS'-284'
p3362
aS'-450'
p3363
aa(lp3364
S'-202'
p3365
aS'-288'
p3366
aa(lp3367
S'-1059'
p3368
aa(lp3369
a(lp3370
S'-264'
p3371
aS'-266'
p3372
aS'-289'
p3373
aS'-292'
p3374
aS'-333'
p3375
aS'-680'
p3376
aS'-879'
p3377
aS'-948'
p3378
aS'-988'
p3379
aa(lp3380
S'-175'
p3381
aS'-215'
p3382
aS'-699'
p3383
aS'-729'
p3384
aS'-740'
p3385
aS'-1134'
p3386
aa(lp3387
a(lp3388
S'-991'
p3389
aa(lp3390
S'-250'
p3391
aS'-276'
p3392
aS'-412'
p3393
aS'-1079'
p3394
aa(lp3395
a(lp3396
a(lp3397
S'-148'
p3398
aa(lp3399
S'-221'
p3400
aS'-988'
p3401
aS'-1162'
p3402
aS'-1199'
p3403
aa(lp3404
S'-358'
p3405
aa(lp3406
a(lp3407
S'-7'
p3408
aS'-9'
p3409
aS'-13'
p3410
aS'-147'
p3411
aS'-150'
p3412
aS'-235'
p3413
aS'-244'
p3414
aS'-301'
p3415
aS'-323'
p3416
aS'-325'
p3417
aS'-405'
p3418
aS'-475'
p3419
aS'-741'
p3420
aS'-873'
p3421
aS'-922'
p3422
aS'-1244'
p3423
aS'-1374'
p3424
aa(lp3425
S'-229'
p3426
aS'-450'
p3427
aa(lp3428
S'-173'
p3429
aS'-179'
p3430
aS'-215'
p3431
aS'-237'
p3432
aS'-285'
p3433
aS'-305'
p3434
aS'-313'
p3435
aS'-323'
p3436
aS'-865'
p3437
aS'-990'
p3438
aS'-1065'
p3439
aS'-1163'
p3440
aa(lp3441
a(lp3442
a(lp3443
S'-234'
p3444
aS'-288'
p3445
aS'-375'
p3446
aS'-410'
p3447
aS'-473'
p3448
aS'-570'
p3449
aS'-827'
p3450
aS'-949'
p3451
aS'-1126'
p3452
aa(lp3453
a(lp3454
S'-289'
p3455
aa(lp3456
S'-243'
p3457
aS'-748'
p3458
aa(lp3459
a(lp3460
a(lp3461
S'-9'
p3462
aS'-15'
p3463
aS'-56'
p3464
aS'-69'
p3465
aS'-103'
p3466
aS'-104'
p3467
aS'-122'
p3468
aS'-180'
p3469
aS'-203'
p3470
aS'-225'
p3471
aS'-286'
p3472
aS'-412'
p3473
aS'-414'
p3474
aS'-475'
p3475
aS'-507'
p3476
aS'-663'
p3477
aS'-687'
p3478
aS'-743'
p3479
aS'-831'
p3480
aS'-840'
p3481
aS'-924'
p3482
aS'-1176'
p3483
aS'-1626'
p3484
aa(lp3485
a(lp3486
S'-373'
p3487
aS'-450'
p3488
aS'-546'
p3489
aS'-576'
p3490
aS'-1247'
p3491
aa(lp3492
S'-294'
p3493
aa(lp3494
S'-301'
p3495
aa(lp3496
S'-2'
p3497
aS'-81'
p3498
aS'-136'
p3499
aS'-205'
p3500
aS'-211'
p3501
aS'-219'
p3502
aS'-238'
p3503
aS'-356'
p3504
aS'-371'
p3505
aS'-386'
p3506
aS'-402'
p3507
aS'-407'
p3508
aS'-410'
p3509
aS'-416'
p3510
aS'-428'
p3511
aS'-436'
p3512
aS'-517'
p3513
aS'-573'
p3514
aS'-581'
p3515
aS'-638'
p3516
aS'-642'
p3517
aS'-659'
p3518
aS'-670'
p3519
aS'-693'
p3520
aS'-722'
p3521
aS'-737'
p3522
aS'-756'
p3523
aS'-763'
p3524
aS'-1046'
p3525
aS'-1065'
p3526
aa(lp3527
S'-13'
p3528
aS'-25'
p3529
aS'-100'
p3530
aS'-246'
p3531
aS'-250'
p3532
aS'-268'
p3533
aS'-276'
p3534
aS'-508'
p3535
aS'-1165'
p3536
aS'-1283'
p3537
aa(lp3538
S'-49'
p3539
aS'-378'
p3540
aS'-717'
p3541
aS'-722'
p3542
aS'-764'
p3543
aS'-781'
p3544
aS'-794'
p3545
aS'-1029'
p3546
aS'-1053'
p3547
aS'-1069'
p3548
aa(lp3549
S'-286'
p3550
aS'-312'
p3551
aa(lp3552
S'-327'
p3553
aS'-455'
p3554
aa(lp3555
a(lp3556
S'-179'
p3557
aa(lp3558
S'-120'
p3559
aS'-122'
p3560
aS'-159'
p3561
aS'-456'
p3562
aS'-658'
p3563
aS'-890'
p3564
aS'-1181'
p3565
aS'-1183'
p3566
aa(lp3567
S'-145'
p3568
aa(lp3569
a(lp3570
S'-289'
p3571
aS'-319'
p3572
aa(lp3573
S'-582'
p3574
aS'-717'
p3575
aa(lp3576
S'-1047'
p3577
aa(lp3578
a(lp3579
S'-301'
p3580
aa(lp3581
S'-69'
p3582
aa(lp3583
S'-117'
p3584
aS'-323'
p3585
aS'-326'
p3586
aS'-329'
p3587
aS'-348'
p3588
aS'-354'
p3589
aS'-898'
p3590
aa(lp3591
a(lp3592
S'-56'
p3593
aS'-147'
p3594
aS'-222'
p3595
aS'-327'
p3596
aS'-1491'
p3597
aS'-1597'
p3598
aa(lp3599
a(lp3600
S'-268'
p3601
aa(lp3602
a(lp3603
a(lp3604
S'-13'
p3605
aS'-288'
p3606
aS'-295'
p3607
aS'-352'
p3608
aS'-508'
p3609
aS'-682'
p3610
aS'-687'
p3611
aS'-688'
p3612
aS'-890'
p3613
aS'-895'
p3614
aS'-948'
p3615
aS'-1234'
p3616
aS'-1527'
p3617
aS'-1654'
p3618
aa(lp3619
S'-14'
p3620
aS'-126'
p3621
aS'-286'
p3622
aS'-289'
p3623
aS'-290'
p3624
aS'-457'
p3625
aS'-740'
p3626
aa(lp3627
a(lp3628
S'-294'
p3629
aa(lp3630
a(lp3631
S'-258'
p3632
aS'-270'
p3633
aS'-288'
p3634
aS'-682'
p3635
aS'-894'
p3636
aa(lp3637
S'-47'
p3638
aS'-80'
p3639
aS'-223'
p3640
aS'-235'
p3641
aS'-243'
p3642
aS'-263'
p3643
aS'-291'
p3644
aS'-352'
p3645
aS'-558'
p3646
aS'-582'
p3647
aS'-659'
p3648
aS'-678'
p3649
aS'-723'
p3650
aa(lp3651
S'-678'
p3652
aS'-682'
p3653
aS'-900'
p3654
aa(lp3655
S'-218'
p3656
aa(lp3657
S'-286'
p3658
aS'-333'
p3659
aS'-334'
p3660
aS'-886'
p3661
aa(lp3662
S'-542'
p3663
aa(lp3664
a(lp3665
a(lp3666
S'-295'
p3667
aS'-410'
p3668
aa(lp3669
S'-47'
p3670
aS'-85'
p3671
aS'-90'
p3672
aS'-120'
p3673
aS'-240'
p3674
aS'-428'
p3675
aS'-514'
p3676
aS'-629'
p3677
aS'-705'
p3678
aS'-716'
p3679
aS'-1118'
p3680
aS'-1185'
p3681
aa(lp3682
S'-243'
p3683
aS'-672'
p3684
aa(lp3685
S'-1012'
p3686
aa(lp3687
S'-130'
p3688
aS'-546'
p3689
aS'-636'
p3690
aS'-1311'
p3691
aa(lp3692
a(lp3693
S'-300'
p3694
aS'-682'
p3695
aS'-895'
p3696
aa(lp3697
S'-347'
p3698
aS'-689'
p3699
aa(lp3700
S'-252'
p3701
aS'-263'
p3702
aS'-683'
p3703
aS'-975'
p3704
aS'-1022'
p3705
aa(lp3706
S'-177'
p3707
aS'-427'
p3708
aS'-656'
p3709
aS'-663'
p3710
aS'-988'
p3711
aa(lp3712
S'-15'
p3713
aS'-211'
p3714
aS'-456'
p3715
aS'-717'
p3716
aa(lp3717
a(lp3718
a(lp3719
S'-271'
p3720
aS'-288'
p3721
aS'-294'
p3722
aS'-346'
p3723
aS'-350'
p3724
aS'-352'
p3725
aS'-683'
p3726
aS'-690'
p3727
aS'-895'
p3728
aa(lp3729
S'-259'
p3730
aa(lp3731
a(lp3732
S'-252'
p3733
aS'-862'
p3734
aa(lp3735
S'-100'
p3736
aS'-325'
p3737
aS'-333'
p3738
aS'-687'
p3739
aa(lp3740
S'-504'
p3741
aS'-641'
p3742
aS'-1142'
p3743
aa(lp3744
S'-9'
p3745
aS'-21'
p3746
aS'-112'
p3747
aS'-271'
p3748
aS'-352'
p3749
aS'-362'
p3750
aS'-412'
p3751
aS'-473'
p3752
aS'-1280'
p3753
aa(lp3754
S'-214'
p3755
aS'-564'
p3756
aa(lp3757
S'-335'
p3758
aa(lp3759
S'-121'
p3760
aS'-240'
p3761
aS'-288'
p3762
aS'-472'
p3763
aS'-763'
p3764
aS'-955'
p3765
aS'-1152'
p3766
aa(lp3767
S'-42'
p3768
aS'-60'
p3769
aS'-136'
p3770
aa(lp3771
S'-362'
p3772
aS'-690'
p3773
aa(lp3774
S'-100'
p3775
aa(lp3776
S'-53'
p3777
aS'-252'
p3778
aS'-254'
p3779
aS'-976'
p3780
aS'-1088'
p3781
aS'-1215'
p3782
aa(lp3783
S'-195'
p3784
aS'-260'
p3785
aS'-385'
p3786
aS'-546'
p3787
aa(lp3788
S'-260'
p3789
aS'-288'
p3790
aS'-890'
p3791
aa(lp3792
a(lp3793
S'-121'
p3794
aS'-240'
p3795
aS'-254'
p3796
aS'-410'
p3797
aS'-456'
p3798
aS'-890'
p3799
aa(lp3800
a(lp3801
S'-65'
p3802
aS'-264'
p3803
aS'-334'
p3804
aS'-358'
p3805
aS'-809'
p3806
aS'-948'
p3807
aa(lp3808
a(lp3809
a(lp3810
S'-289'
p3811
aS'-308'
p3812
aS'-311'
p3813
aS'-322'
p3814
aS'-336'
p3815
aS'-343'
p3816
aS'-344'
p3817
aS'-346'
p3818
aS'-352'
p3819
aS'-358'
p3820
aS'-682'
p3821
aS'-683'
p3822
aS'-690'
p3823
aS'-748'
p3824
aS'-872'
p3825
aS'-876'
p3826
aS'-877'
p3827
aS'-879'
p3828
aS'-898'
p3829
aS'-906'
p3830
aS'-995'
p3831
aS'-1105'
p3832
aS'-1176'
p3833
aS'-1234'
p3834
aS'-1434'
p3835
aS'-1591'
p3836
aS'-1617'
p3837
aa(lp3838
a(lp3839
S'-249'
p3840
aa(lp3841
S'-17'
p3842
aS'-105'
p3843
aS'-260'
p3844
aS'-890'
p3845
aS'-933'
p3846
aS'-1049'
p3847
aS'-1185'
p3848
aS'-1615'
p3849
aa(lp3850
a(lp3851
S'-338'
p3852
aS'-346'
p3853
aa(lp3854
S'-301'
p3855
aS'-322'
p3856
aa(lp3857
S'-521'
p3858
aS'-591'
p3859
aa(lp3860
a(lp3861
S'-147'
p3862
aS'-250'
p3863
aS'-544'
p3864
aS'-933'
p3865
aa(lp3866
S'-56'
p3867
aS'-198'
p3868
aS'-222'
p3869
aa(lp3870
S'-147'
p3871
aS'-289'
p3872
aS'-325'
p3873
aa(lp3874
S'-255'
p3875
aa(lp3876
S'-501'
p3877
aa(lp3878
a(lp3879
S'-168'
p3880
aS'-176'
p3881
aS'-197'
p3882
aS'-288'
p3883
aa(lp3884
a(lp3885
S'-118'
p3886
aS'-692'
p3887
aS'-1090'
p3888
aa(lp3889
a(lp3890
S'-338'
p3891
aa(lp3892
a(lp3893
S'-483'
p3894
aS'-507'
p3895
aS'-936'
p3896
aa(lp3897
S'-230'
p3898
aS'-449'
p3899
aa(lp3900
S'-301'
p3901
aa(lp3902
S'-650'
p3903
aa(lp3904
S'-105'
p3905
aS'-763'
p3906
aS'-780'
p3907
aa(lp3908
S'-683'
p3909
aS'-688'
p3910
aS'-1280'
p3911
aa(lp3912
S'-11'
p3913
aS'-323'
p3914
aS'-381'
p3915
aS'-591'
p3916
aa(lp3917
S'-286'
p3918
aS'-310'
p3919
aS'-322'
p3920
aS'-323'
p3921
aS'-345'
p3922
aS'-887'
p3923
aS'-1527'
p3924
aa(lp3925
S'-96'
p3926
aS'-183'
p3927
aS'-300'
p3928
aa(lp3929
S'-243'
p3930
aa(lp3931
S'-288'
p3932
aS'-289'
p3933
aS'-340'
p3934
aS'-872'
p3935
aS'-881'
p3936
aa(lp3937
S'-3'
p3938
aS'-88'
p3939
aS'-554'
p3940
aS'-860'
p3941
aS'-1652'
p3942
aa(lp3943
S'-122'
p3944
aa(lp3945
S'-123'
p3946
aS'-328'
p3947
aS'-689'
p3948
aS'-748'
p3949
aS'-1292'
p3950
aa(lp3951
a(lp3952
S'-300'
p3953
aS'-819'
p3954
aS'-928'
p3955
aa(lp3956
S'-1'
p3957
aS'-261'
p3958
aS'-263'
p3959
aS'-326'
p3960
aS'-457'
p3961
aS'-477'
p3962
aS'-508'
p3963
aS'-988'
p3964
aS'-1014'
p3965
aS'-1272'
p3966
aS'-1287'
p3967
aa(lp3968
S'-116'
p3969
aS'-246'
p3970
aS'-332'
p3971
aS'-749'
p3972
aS'-815'
p3973
aS'-934'
p3974
aS'-1662'
p3975
aa(lp3976
a(lp3977
S'-321'
p3978
aS'-743'
p3979
aS'-1057'
p3980
aa(lp3981
a(lp3982
S'-607'
p3983
aa(lp3984
a(lp3985
a(lp3986
a(lp3987
a(lp3988
S'-4'
p3989
aS'-79'
p3990
aS'-97'
p3991
aS'-144'
p3992
aS'-197'
p3993
aS'-203'
p3994
aS'-241'
p3995
aa(lp3996
a(lp3997
S'-343'
p3998
aS'-588'
p3999
aa(lp4000
S'-2'
p4001
aS'-8'
p4002
aS'-29'
p4003
aS'-54'
p4004
aS'-58'
p4005
aS'-72'
p4006
aS'-77'
p4007
aS'-88'
p4008
aS'-91'
p4009
aS'-168'
p4010
aS'-197'
p4011
aS'-210'
p4012
aS'-218'
p4013
aS'-231'
p4014
aS'-258'
p4015
aS'-294'
p4016
aS'-307'
p4017
aS'-318'
p4018
aS'-385'
p4019
aS'-391'
p4020
aS'-393'
p4021
aS'-398'
p4022
aS'-423'
p4023
aS'-428'
p4024
aS'-429'
p4025
aS'-444'
p4026
aS'-447'
p4027
aS'-449'
p4028
aS'-451'
p4029
aS'-452'
p4030
aS'-501'
p4031
aS'-518'
p4032
aS'-527'
p4033
aS'-545'
p4034
aS'-548'
p4035
aS'-554'
p4036
aS'-559'
p4037
aS'-561'
p4038
aS'-563'
p4039
aS'-567'
p4040
aS'-576'
p4041
aS'-585'
p4042
aS'-650'
p4043
aS'-655'
p4044
aS'-672'
p4045
aS'-684'
p4046
aS'-692'
p4047
aS'-712'
p4048
aS'-732'
p4049
aS'-774'
p4050
aS'-795'
p4051
aS'-808'
p4052
aS'-849'
p4053
aS'-1091'
p4054
aS'-1110'
p4055
aS'-1182'
p4056
aS'-1228'
p4057
aS'-1274'
p4058
aS'-1419'
p4059
aa(lp4060
a(lp4061
S'-241'
p4062
aS'-432'
p4063
aa(lp4064
S'-100'
p4065
aS'-127'
p4066
aa(lp4067
a(lp4068
a(lp4069
S'-433'
p4070
aa(lp4071
S'-286'
p4072
aS'-294'
p4073
aS'-878'
p4074
aa(lp4075
S'-259'
p4076
aS'-266'
p4077
aS'-347'
p4078
aS'-352'
p4079
aS'-680'
p4080
aS'-683'
p4081
aS'-890'
p4082
aS'-937'
p4083
aS'-1609'
p4084
aa(lp4085
a(lp4086
a(lp4087
a(lp4088
S'-240'
p4089
aS'-276'
p4090
aS'-455'
p4091
aS'-871'
p4092
aa(lp4093
S'-288'
p4094
aa(lp4095
S'-85'
p4096
aS'-151'
p4097
aS'-432'
p4098
aS'-629'
p4099
aa(lp4100
S'-286'
p4101
aa(lp4102
S'-10'
p4103
aS'-69'
p4104
aS'-209'
p4105
aS'-235'
p4106
aS'-546'
p4107
aS'-687'
p4108
aS'-748'
p4109
aS'-826'
p4110
aS'-1025'
p4111
aS'-1215'
p4112
aS'-1244'
p4113
aa(lp4114
S'-331'
p4115
aa(lp4116
S'-476'
p4117
aa(lp4118
a(lp4119
a(lp4120
a(lp4121
S'-36'
p4122
aS'-53'
p4123
aS'-184'
p4124
aS'-249'
p4125
aS'-301'
p4126
aS'-1074'
p4127
aS'-1126'
p4128
aa(lp4129
S'-748'
p4130
aS'-948'
p4131
aS'-988'
p4132
aa(lp4133
S'-97'
p4134
aS'-98'
p4135
aS'-111'
p4136
aS'-719'
p4137
aS'-961'
p4138
aS'-1411'
p4139
aa(lp4140
a(lp4141
a(lp4142
S'-681'
p4143
aa(lp4144
S'-263'
p4145
aa(lp4146
S'-261'
p4147
aS'-683'
p4148
aS'-688'
p4149
aS'-748'
p4150
aa(lp4151
a(lp4152
S'-22'
p4153
aS'-155'
p4154
aS'-161'
p4155
aS'-259'
p4156
aS'-288'
p4157
aS'-294'
p4158
aS'-338'
p4159
aS'-371'
p4160
aS'-385'
p4161
aS'-406'
p4162
aS'-423'
p4163
aS'-431'
p4164
aS'-554'
p4165
aS'-569'
p4166
aS'-739'
p4167
aa(lp4168
S'-252'
p4169
aS'-1016'
p4170
aa(lp4171
S'-235'
p4172
aa(lp4173
a(lp4174
S'-289'
p4175
aa(lp4176
a(lp4177
a(lp4178
a(lp4179
S'-294'
p4180
aS'-304'
p4181
aS'-342'
p4182
aS'-877'
p4183
aS'-898'
p4184
aa(lp4185
a(lp4186
S'-250'
p4187
aS'-472'
p4188
aS'-514'
p4189
aS'-582'
p4190
aS'-871'
p4191
aa(lp4192
a(lp4193
a(lp4194
a(lp4195
a(lp4196
S'-358'
p4197
aa(lp4198
a(lp4199
a(lp4200
S'-374'
p4201
aS'-1217'
p4202
aa(lp4203
S'-243'
p4204
aa(lp4205
S'-276'
p4206
aS'-288'
p4207
aS'-289'
p4208
aS'-919'
p4209
aS'-1254'
p4210
aa(lp4211
a(lp4212
a(lp4213
S'-6'
p4214
aS'-345'
p4215
aS'-347'
p4216
aS'-752'
p4217
aS'-886'
p4218
aS'-1056'
p4219
aa(lp4220
S'-278'
p4221
aa(lp4222
S'-424'
p4223
aa(lp4224
S'-288'
p4225
aS'-688'
p4226
aa(lp4227
a(lp4228
S'-26'
p4229
aS'-121'
p4230
aS'-186'
p4231
aS'-204'
p4232
aS'-249'
p4233
aS'-289'
p4234
aS'-403'
p4235
aS'-451'
p4236
aS'-544'
p4237
aS'-577'
p4238
aS'-597'
p4239
aS'-670'
p4240
aS'-819'
p4241
aS'-824'
p4242
aS'-1006'
p4243
aS'-1016'
p4244
aS'-1029'
p4245
aS'-1181'
p4246
aa(lp4247
a(lp4248
a(lp4249
S'-288'
p4250
aS'-289'
p4251
aS'-875'
p4252
aa(lp4253
S'-276'
p4254
aS'-284'
p4255
aS'-763'
p4256
aa(lp4257
a(lp4258
S'-319'
p4259
aS'-321'
p4260
aS'-410'
p4261
aa(lp4262
a(lp4263
a(lp4264
S'-344'
p4265
aa(lp4266
S'-170'
p4267
aS'-440'
p4268
aS'-569'
p4269
aa(lp4270
S'-260'
p4271
aa(lp4272
S'-303'
p4273
aS'-340'
p4274
aS'-1463'
p4275
aa(lp4276
S'-44'
p4277
aS'-426'
p4278
aS'-640'
p4279
aa(lp4280
S'-56'
p4281
aS'-93'
p4282
aS'-120'
p4283
aS'-157'
p4284
aS'-225'
p4285
aS'-235'
p4286
aS'-240'
p4287
aS'-243'
p4288
aS'-261'
p4289
aS'-369'
p4290
aS'-410'
p4291
aS'-411'
p4292
aS'-456'
p4293
aS'-756'
p4294
aS'-763'
p4295
aS'-820'
p4296
aS'-926'
p4297
aS'-948'
p4298
aS'-1012'
p4299
aS'-1172'
p4300
aa(lp4301
S'-640'
p4302
aS'-689'
p4303
aa(lp4304
a(lp4305
S'-56'
p4306
aS'-98'
p4307
aa(lp4308
S'-112'
p4309
aS'-332'
p4310
aS'-981'
p4311
aS'-987'
p4312
aS'-1034'
p4313
aS'-1094'
p4314
aS'-1254'
p4315
aS'-1287'
p4316
aa(lp4317
a(lp4318
S'-301'
p4319
aS'-307'
p4320
aS'-340'
p4321
aS'-358'
p4322
aa(lp4323
S'-3'
p4324
aS'-121'
p4325
aS'-123'
p4326
aS'-225'
p4327
aS'-255'
p4328
aS'-264'
p4329
aS'-286'
p4330
aS'-290'
p4331
aS'-322'
p4332
aS'-328'
p4333
aS'-472'
p4334
aS'-1013'
p4335
aS'-1047'
p4336
aS'-1061'
p4337
aa(lp4338
a(lp4339
S'-289'
p4340
aa(lp4341
S'-325'
p4342
aS'-348'
p4343
aS'-687'
p4344
aa(lp4345
S'-678'
p4346
aa(lp4347
a(lp4348
a(lp4349
S'-179'
p4350
aS'-321'
p4351
aa(lp4352
a(lp4353
S'-259'
p4354
aS'-303'
p4355
aS'-322'
p4356
aS'-342'
p4357
aS'-354'
p4358
aS'-362'
p4359
aS'-683'
p4360
aS'-877'
p4361
aS'-898'
p4362
aS'-901'
p4363
aS'-908'
p4364
aS'-990'
p4365
aS'-1038'
p4366
aS'-1313'
p4367
aa(lp4368
a(lp4369
S'-1'
p4370
aS'-108'
p4371
aS'-111'
p4372
aS'-118'
p4373
aS'-121'
p4374
aS'-271'
p4375
aS'-411'
p4376
aS'-471'
p4377
aS'-472'
p4378
aS'-546'
p4379
aS'-763'
p4380
aS'-825'
p4381
aS'-845'
p4382
aS'-1028'
p4383
aa(lp4384
S'-300'
p4385
aS'-313'
p4386
aa(lp4387
a(lp4388
S'-73'
p4389
aS'-94'
p4390
aS'-139'
p4391
aS'-142'
p4392
aS'-145'
p4393
aS'-232'
p4394
aS'-237'
p4395
aS'-398'
p4396
aS'-405'
p4397
aS'-417'
p4398
aS'-470'
p4399
aS'-568'
p4400
aS'-579'
p4401
aS'-588'
p4402
aS'-825'
p4403
aS'-843'
p4404
aS'-946'
p4405
aS'-1031'
p4406
aS'-1035'
p4407
aa(lp4408
S'-15'
p4409
aS'-118'
p4410
aS'-284'
p4411
aS'-815'
p4412
aa(lp4413
S'-458'
p4414
aS'-736'
p4415
aa(lp4416
a(lp4417
S'-268'
p4418
aS'-1011'
p4419
aa(lp4420
S'-321'
p4421
aS'-875'
p4422
aa(lp4423
a(lp4424
a(lp4425
a(lp4426
S'-737'
p4427
aa(lp4428
S'-640'
p4429
aa(lp4430
a(lp4431
S'-3'
p4432
aS'-41'
p4433
aS'-67'
p4434
aS'-368'
p4435
aS'-369'
p4436
aS'-407'
p4437
aS'-585'
p4438
aS'-721'
p4439
aS'-783'
p4440
aS'-1052'
p4441
aS'-1185'
p4442
aS'-1215'
p4443
aa(lp4444
S'-103'
p4445
aS'-238'
p4446
aS'-289'
p4447
aS'-412'
p4448
aS'-542'
p4449
aS'-582'
p4450
aS'-705'
p4451
aS'-1033'
p4452
aS'-1089'
p4453
aS'-1164'
p4454
aa(lp4455
S'-412'
p4456
aS'-841'
p4457
aS'-929'
p4458
aa(lp4459
S'-385'
p4460
aa(lp4461
S'-300'
p4462
aS'-640'
p4463
aa(lp4464
S'-29'
p4465
aS'-72'
p4466
aS'-179'
p4467
aS'-290'
p4468
aS'-1030'
p4469
aa(lp4470
S'-53'
p4471
aS'-118'
p4472
aS'-160'
p4473
aS'-466'
p4474
aS'-512'
p4475
aS'-546'
p4476
aS'-582'
p4477
aS'-623'
p4478
aS'-772'
p4479
aS'-799'
p4480
aS'-826'
p4481
aS'-1093'
p4482
aa(lp4483
S'-13'
p4484
aS'-183'
p4485
aS'-243'
p4486
aS'-258'
p4487
aS'-274'
p4488
aS'-476'
p4489
aS'-477'
p4490
aS'-655'
p4491
aS'-699'
p4492
aS'-718'
p4493
aS'-826'
p4494
aS'-929'
p4495
aS'-1012'
p4496
aS'-1063'
p4497
aS'-1079'
p4498
aS'-1473'
p4499
aa(lp4500
a(lp4501
S'-338'
p4502
aS'-514'
p4503
aa(lp4504
a(lp4505
a(lp4506
a(lp4507
S'-976'
p4508
aa(lp4509
S'-109'
p4510
aa(lp4511
a(lp4512
S'-86'
p4513
aS'-92'
p4514
aS'-271'
p4515
aS'-325'
p4516
aS'-403'
p4517
aS'-742'
p4518
aa(lp4519
a(lp4520
S'-243'
p4521
aa(lp4522
S'-717'
p4523
aa(lp4524
S'-130'
p4525
aS'-325'
p4526
aS'-834'
p4527
aS'-871'
p4528
aS'-1132'
p4529
aa(lp4530
S'-13'
p4531
aS'-20'
p4532
aS'-56'
p4533
aS'-91'
p4534
aS'-321'
p4535
aa(lp4536
S'-246'
p4537
aS'-268'
p4538
aa(lp4539
S'-845'
p4540
aS'-977'
p4541
aa(lp4542
a(lp4543
a(lp4544
a(lp4545
a(lp4546
a(lp4547
a(lp4548
S'-121'
p4549
aS'-181'
p4550
aS'-250'
p4551
aS'-628'
p4552
aa(lp4553
S'-240'
p4554
aa(lp4555
a(lp4556
S'-260'
p4557
aS'-301'
p4558
aS'-343'
p4559
aS'-596'
p4560
aa(lp4561
a(lp4562
a(lp4563
S'-147'
p4564
aS'-578'
p4565
aS'-825'
p4566
aS'-831'
p4567
aS'-931'
p4568
aS'-978'
p4569
aa(lp4570
a(lp4571
S'-133'
p4572
aS'-135'
p4573
aS'-153'
p4574
aS'-204'
p4575
aS'-340'
p4576
aS'-430'
p4577
aS'-1265'
p4578
aa(lp4579
S'-4'
p4580
aS'-20'
p4581
aS'-168'
p4582
aS'-687'
p4583
aS'-748'
p4584
aS'-875'
p4585
aa(lp4586
a(lp4587
S'-240'
p4588
aS'-245'
p4589
aS'-275'
p4590
aS'-276'
p4591
aS'-369'
p4592
aS'-929'
p4593
aS'-1047'
p4594
aS'-1287'
p4595
aa(lp4596
S'-56'
p4597
aS'-219'
p4598
aS'-447'
p4599
aa(lp4600
a(lp4601
a(lp4602
S'-773'
p4603
aa(lp4604
a(lp4605
S'-105'
p4606
aS'-274'
p4607
aS'-278'
p4608
aS'-410'
p4609
aS'-412'
p4610
aa(lp4611
a(lp4612
S'-431'
p4613
aa(lp4614
S'-16'
p4615
aS'-24'
p4616
aS'-148'
p4617
aS'-240'
p4618
aS'-288'
p4619
aS'-411'
p4620
aS'-455'
p4621
aa(lp4622
S'-1022'
p4623
aa(lp4624
S'-890'
p4625
aa(lp4626
S'-21'
p4627
aS'-42'
p4628
aS'-53'
p4629
aS'-62'
p4630
aS'-219'
p4631
aS'-222'
p4632
aS'-232'
p4633
aS'-433'
p4634
aS'-934'
p4635
aa(lp4636
S'-209'
p4637
aS'-216'
p4638
aS'-786'
p4639
aS'-818'
p4640
aa(lp4641
S'-9'
p4642
aa(lp4643
S'-628'
p4644
aS'-898'
p4645
aS'-1079'
p4646
aa(lp4647
S'-268'
p4648
aS'-301'
p4649
aS'-326'
p4650
aa(lp4651
S'-248'
p4652
aS'-255'
p4653
aS'-289'
p4654
aS'-410'
p4655
aS'-477'
p4656
aS'-845'
p4657
aa(lp4658
a(lp4659
S'-264'
p4660
aS'-358'
p4661
aS'-1401'
p4662
aa(lp4663
a(lp4664
a(lp4665
S'-122'
p4666
aS'-549'
p4667
aS'-724'
p4668
aS'-941'
p4669
aa.